Archive member included to satisfy reference by file (symbol)

C:\Users\Vitor\Documents\Atmel Studio\7.0\ArduinoSketch4\ArduinoSketch4\ArduinoCore\Debug\libArduinoCore.a(HardwareSerial.o)
                              Sketch.o (_ZN14HardwareSerial5beginEmh)
C:\Users\Vitor\Documents\Atmel Studio\7.0\ArduinoSketch4\ArduinoSketch4\ArduinoCore\Debug\libArduinoCore.a(HardwareSerial0.o)
                              Sketch.o (Serial)
C:\Users\Vitor\Documents\Atmel Studio\7.0\ArduinoSketch4\ArduinoSketch4\ArduinoCore\Debug\libArduinoCore.a(main.o)
                              C:/Program Files (x86)/Atmel/Studio/7.0/Packs/Atmel/ATmega_DFP/1.2.272/gcc/dev/atmega2560/avr6/crtatmega2560.o (main)
C:\Users\Vitor\Documents\Atmel Studio\7.0\ArduinoSketch4\ArduinoSketch4\ArduinoCore\Debug\libArduinoCore.a(new.o)
                              Sketch.o (_Znwj)
C:\Users\Vitor\Documents\Atmel Studio\7.0\ArduinoSketch4\ArduinoSketch4\ArduinoCore\Debug\libArduinoCore.a(Print.o)
                              C:\Users\Vitor\Documents\Atmel Studio\7.0\ArduinoSketch4\ArduinoSketch4\ArduinoCore\Debug\libArduinoCore.a(HardwareSerial.o) (_ZN5Print5writeEPKhj)
C:\Users\Vitor\Documents\Atmel Studio\7.0\ArduinoSketch4\ArduinoSketch4\ArduinoCore\Debug\libArduinoCore.a(wiring.o)
                              Sketch.o (delay)
C:\Users\Vitor\Documents\Atmel Studio\7.0\ArduinoSketch4\ArduinoSketch4\ArduinoCore\Debug\libArduinoCore.a(Adafruit_SSD1306.o)
                              Sketch.o (_ZN16Adafruit_SSD130612clearDisplayEv)
C:\Users\Vitor\Documents\Atmel Studio\7.0\ArduinoSketch4\ArduinoSketch4\ArduinoCore\Debug\libArduinoCore.a(red_beryl.o)
                              Sketch.o (_ZN9red_beryl8upperBarEv)
C:\Users\Vitor\Documents\Atmel Studio\7.0\ArduinoSketch4\ArduinoSketch4\ArduinoCore\Debug\libArduinoCore.a(red_crystal.o)
                              C:\Users\Vitor\Documents\Atmel Studio\7.0\ArduinoSketch4\ArduinoSketch4\ArduinoCore\Debug\libArduinoCore.a(red_beryl.o) (_ZN11red_crystalC1Ev)
C:\Users\Vitor\Documents\Atmel Studio\7.0\ArduinoSketch4\ArduinoSketch4\ArduinoCore\Debug\libArduinoCore.a(red_fang.o)
                              Sketch.o (_ZN8red_fangC1Ev)
C:\Users\Vitor\Documents\Atmel Studio\7.0\ArduinoSketch4\ArduinoSketch4\ArduinoCore\Debug\libArduinoCore.a(red_quartz.o)
                              C:\Users\Vitor\Documents\Atmel Studio\7.0\ArduinoSketch4\ArduinoSketch4\ArduinoCore\Debug\libArduinoCore.a(red_beryl.o) (_ZN10red_quartzC1Ev)
C:\Users\Vitor\Documents\Atmel Studio\7.0\ArduinoSketch4\ArduinoSketch4\ArduinoCore\Debug\libArduinoCore.a(SPI.o)
                              C:\Users\Vitor\Documents\Atmel Studio\7.0\ArduinoSketch4\ArduinoSketch4\ArduinoCore\Debug\libArduinoCore.a(Adafruit_SSD1306.o) (_ZN8SPIClass5beginEv)
C:\Users\Vitor\Documents\Atmel Studio\7.0\ArduinoSketch4\ArduinoSketch4\ArduinoCore\Debug\libArduinoCore.a(Wire.o)
                              C:\Users\Vitor\Documents\Atmel Studio\7.0\ArduinoSketch4\ArduinoSketch4\ArduinoCore\Debug\libArduinoCore.a(red_beryl.o) (_ZN7TwoWire9availableEv)
C:\Users\Vitor\Documents\Atmel Studio\7.0\ArduinoSketch4\ArduinoSketch4\ArduinoCore\Debug\libArduinoCore.a(abi.o)
                              C:\Users\Vitor\Documents\Atmel Studio\7.0\ArduinoSketch4\ArduinoSketch4\ArduinoCore\Debug\libArduinoCore.a(Print.o) (__cxa_pure_virtual)
C:\Users\Vitor\Documents\Atmel Studio\7.0\ArduinoSketch4\ArduinoSketch4\ArduinoCore\Debug\libArduinoCore.a(HardwareSerial1.o)
                              C:\Users\Vitor\Documents\Atmel Studio\7.0\ArduinoSketch4\ArduinoSketch4\ArduinoCore\Debug\libArduinoCore.a(red_beryl.o) (Serial1)
C:\Users\Vitor\Documents\Atmel Studio\7.0\ArduinoSketch4\ArduinoSketch4\ArduinoCore\Debug\libArduinoCore.a(hooks.o)
                              C:\Users\Vitor\Documents\Atmel Studio\7.0\ArduinoSketch4\ArduinoSketch4\ArduinoCore\Debug\libArduinoCore.a(wiring.o) (yield)
C:\Users\Vitor\Documents\Atmel Studio\7.0\ArduinoSketch4\ArduinoSketch4\ArduinoCore\Debug\libArduinoCore.a(wiring_analog.o)
                              C:\Users\Vitor\Documents\Atmel Studio\7.0\ArduinoSketch4\ArduinoSketch4\ArduinoCore\Debug\libArduinoCore.a(red_beryl.o) (analogRead)
C:\Users\Vitor\Documents\Atmel Studio\7.0\ArduinoSketch4\ArduinoSketch4\ArduinoCore\Debug\libArduinoCore.a(wiring_digital.o)
                              C:\Users\Vitor\Documents\Atmel Studio\7.0\ArduinoSketch4\ArduinoSketch4\ArduinoCore\Debug\libArduinoCore.a(Adafruit_SSD1306.o) (pinMode)
C:\Users\Vitor\Documents\Atmel Studio\7.0\ArduinoSketch4\ArduinoSketch4\ArduinoCore\Debug\libArduinoCore.a(WMath.o)
                              C:\Users\Vitor\Documents\Atmel Studio\7.0\ArduinoSketch4\ArduinoSketch4\ArduinoCore\Debug\libArduinoCore.a(red_beryl.o) (_Z3maplllll)
C:\Users\Vitor\Documents\Atmel Studio\7.0\ArduinoSketch4\ArduinoSketch4\ArduinoCore\Debug\libArduinoCore.a(Adafruit_GFX.o)
                              C:\Users\Vitor\Documents\Atmel Studio\7.0\ArduinoSketch4\ArduinoSketch4\ArduinoCore\Debug\libArduinoCore.a(Adafruit_SSD1306.o) (_ZN12Adafruit_GFX9writeLineEiiiij)
C:\Users\Vitor\Documents\Atmel Studio\7.0\ArduinoSketch4\ArduinoSketch4\ArduinoCore\Debug\libArduinoCore.a(AD5933.o)
                              C:\Users\Vitor\Documents\Atmel Studio\7.0\ArduinoSketch4\ArduinoSketch4\ArduinoCore\Debug\libArduinoCore.a(red_crystal.o) (_ZN6AD593317setStartFrequencyEm)
C:\Users\Vitor\Documents\Atmel Studio\7.0\ArduinoSketch4\ArduinoSketch4\ArduinoCore\Debug\libArduinoCore.a(DS3231.o)
                              C:\Users\Vitor\Documents\Atmel Studio\7.0\ArduinoSketch4\ArduinoSketch4\ArduinoCore\Debug\libArduinoCore.a(red_quartz.o) (_ZN6DS3231C1Ev)
C:\Users\Vitor\Documents\Atmel Studio\7.0\ArduinoSketch4\ArduinoSketch4\ArduinoCore\Debug\libArduinoCore.a(twi.o)
                              C:\Users\Vitor\Documents\Atmel Studio\7.0\ArduinoSketch4\ArduinoSketch4\ArduinoCore\Debug\libArduinoCore.a(Wire.o) (twi_init)
c:/program files (x86)/atmel/studio/7.0/toolchain/avr8/avr8-gnu-toolchain/bin/../lib/gcc/avr/5.4.0/../../../../avr/lib/avr6\libm.a(addsf3.o)
                              C:\Users\Vitor\Documents\Atmel Studio\7.0\ArduinoSketch4\ArduinoSketch4\ArduinoCore\Debug\libArduinoCore.a(Print.o) (__subsf3)
c:/program files (x86)/atmel/studio/7.0/toolchain/avr8/avr8-gnu-toolchain/bin/../lib/gcc/avr/5.4.0/../../../../avr/lib/avr6\libm.a(addsf3x.o)
                              c:/program files (x86)/atmel/studio/7.0/toolchain/avr8/avr8-gnu-toolchain/bin/../lib/gcc/avr/5.4.0/../../../../avr/lib/avr6\libm.a(addsf3.o) (__addsf3x)
c:/program files (x86)/atmel/studio/7.0/toolchain/avr8/avr8-gnu-toolchain/bin/../lib/gcc/avr/5.4.0/../../../../avr/lib/avr6\libm.a(atan2.o)
                              C:\Users\Vitor\Documents\Atmel Studio\7.0\ArduinoSketch4\ArduinoSketch4\ArduinoCore\Debug\libArduinoCore.a(red_crystal.o) (atan2)
c:/program files (x86)/atmel/studio/7.0/toolchain/avr8/avr8-gnu-toolchain/bin/../lib/gcc/avr/5.4.0/../../../../avr/lib/avr6\libm.a(atan.o)
                              c:/program files (x86)/atmel/studio/7.0/toolchain/avr8/avr8-gnu-toolchain/bin/../lib/gcc/avr/5.4.0/../../../../avr/lib/avr6\libm.a(atan2.o) (atan)
c:/program files (x86)/atmel/studio/7.0/toolchain/avr8/avr8-gnu-toolchain/bin/../lib/gcc/avr/5.4.0/../../../../avr/lib/avr6\libm.a(cmpsf2.o)
                              C:\Users\Vitor\Documents\Atmel Studio\7.0\ArduinoSketch4\ArduinoSketch4\ArduinoCore\Debug\libArduinoCore.a(Print.o) (__ltsf2)
c:/program files (x86)/atmel/studio/7.0/toolchain/avr8/avr8-gnu-toolchain/bin/../lib/gcc/avr/5.4.0/../../../../avr/lib/avr6\libm.a(cos.o)
                              C:\Users\Vitor\Documents\Atmel Studio\7.0\ArduinoSketch4\ArduinoSketch4\ArduinoCore\Debug\libArduinoCore.a(red_crystal.o) (cos)
c:/program files (x86)/atmel/studio/7.0/toolchain/avr8/avr8-gnu-toolchain/bin/../lib/gcc/avr/5.4.0/../../../../avr/lib/avr6\libm.a(divsf3.o)
                              C:\Users\Vitor\Documents\Atmel Studio\7.0\ArduinoSketch4\ArduinoSketch4\ArduinoCore\Debug\libArduinoCore.a(Print.o) (__divsf3)
c:/program files (x86)/atmel/studio/7.0/toolchain/avr8/avr8-gnu-toolchain/bin/../lib/gcc/avr/5.4.0/../../../../avr/lib/avr6\libm.a(divsf3x.o)
                              c:/program files (x86)/atmel/studio/7.0/toolchain/avr8/avr8-gnu-toolchain/bin/../lib/gcc/avr/5.4.0/../../../../avr/lib/avr6\libm.a(divsf3.o) (__divsf3x)
c:/program files (x86)/atmel/studio/7.0/toolchain/avr8/avr8-gnu-toolchain/bin/../lib/gcc/avr/5.4.0/../../../../avr/lib/avr6\libm.a(fixsfsi.o)
                              C:\Users\Vitor\Documents\Atmel Studio\7.0\ArduinoSketch4\ArduinoSketch4\ArduinoCore\Debug\libArduinoCore.a(red_beryl.o) (__fixsfsi)
c:/program files (x86)/atmel/studio/7.0/toolchain/avr8/avr8-gnu-toolchain/bin/../lib/gcc/avr/5.4.0/../../../../avr/lib/avr6\libm.a(fixunssfsi.o)
                              C:\Users\Vitor\Documents\Atmel Studio\7.0\ArduinoSketch4\ArduinoSketch4\ArduinoCore\Debug\libArduinoCore.a(Print.o) (__fixunssfsi)
c:/program files (x86)/atmel/studio/7.0/toolchain/avr8/avr8-gnu-toolchain/bin/../lib/gcc/avr/5.4.0/../../../../avr/lib/avr6\libm.a(floatsisf.o)
                              C:\Users\Vitor\Documents\Atmel Studio\7.0\ArduinoSketch4\ArduinoSketch4\ArduinoCore\Debug\libArduinoCore.a(Print.o) (__floatunsisf)
c:/program files (x86)/atmel/studio/7.0/toolchain/avr8/avr8-gnu-toolchain/bin/../lib/gcc/avr/5.4.0/../../../../avr/lib/avr6\libm.a(fp_cmp.o)
                              c:/program files (x86)/atmel/studio/7.0/toolchain/avr8/avr8-gnu-toolchain/bin/../lib/gcc/avr/5.4.0/../../../../avr/lib/avr6\libm.a(cmpsf2.o) (__fp_cmp)
c:/program files (x86)/atmel/studio/7.0/toolchain/avr8/avr8-gnu-toolchain/bin/../lib/gcc/avr/5.4.0/../../../../avr/lib/avr6\libm.a(fp_inf.o)
                              c:/program files (x86)/atmel/studio/7.0/toolchain/avr8/avr8-gnu-toolchain/bin/../lib/gcc/avr/5.4.0/../../../../avr/lib/avr6\libm.a(addsf3x.o) (__fp_inf)
c:/program files (x86)/atmel/studio/7.0/toolchain/avr8/avr8-gnu-toolchain/bin/../lib/gcc/avr/5.4.0/../../../../avr/lib/avr6\libm.a(fp_nan.o)
                              c:/program files (x86)/atmel/studio/7.0/toolchain/avr8/avr8-gnu-toolchain/bin/../lib/gcc/avr/5.4.0/../../../../avr/lib/avr6\libm.a(addsf3x.o) (__fp_nan)
c:/program files (x86)/atmel/studio/7.0/toolchain/avr8/avr8-gnu-toolchain/bin/../lib/gcc/avr/5.4.0/../../../../avr/lib/avr6\libm.a(fp_powser.o)
                              c:/program files (x86)/atmel/studio/7.0/toolchain/avr8/avr8-gnu-toolchain/bin/../lib/gcc/avr/5.4.0/../../../../avr/lib/avr6\libm.a(atan.o) (__fp_powser)
c:/program files (x86)/atmel/studio/7.0/toolchain/avr8/avr8-gnu-toolchain/bin/../lib/gcc/avr/5.4.0/../../../../avr/lib/avr6\libm.a(fp_pscA.o)
                              c:/program files (x86)/atmel/studio/7.0/toolchain/avr8/avr8-gnu-toolchain/bin/../lib/gcc/avr/5.4.0/../../../../avr/lib/avr6\libm.a(addsf3x.o) (__fp_pscA)
c:/program files (x86)/atmel/studio/7.0/toolchain/avr8/avr8-gnu-toolchain/bin/../lib/gcc/avr/5.4.0/../../../../avr/lib/avr6\libm.a(fp_pscB.o)
                              c:/program files (x86)/atmel/studio/7.0/toolchain/avr8/avr8-gnu-toolchain/bin/../lib/gcc/avr/5.4.0/../../../../avr/lib/avr6\libm.a(addsf3x.o) (__fp_pscB)
c:/program files (x86)/atmel/studio/7.0/toolchain/avr8/avr8-gnu-toolchain/bin/../lib/gcc/avr/5.4.0/../../../../avr/lib/avr6\libm.a(fp_rempio2.o)
                              c:/program files (x86)/atmel/studio/7.0/toolchain/avr8/avr8-gnu-toolchain/bin/../lib/gcc/avr/5.4.0/../../../../avr/lib/avr6\libm.a(cos.o) (__fp_rempio2)
c:/program files (x86)/atmel/studio/7.0/toolchain/avr8/avr8-gnu-toolchain/bin/../lib/gcc/avr/5.4.0/../../../../avr/lib/avr6\libm.a(fp_round.o)
                              c:/program files (x86)/atmel/studio/7.0/toolchain/avr8/avr8-gnu-toolchain/bin/../lib/gcc/avr/5.4.0/../../../../avr/lib/avr6\libm.a(addsf3.o) (__fp_round)
c:/program files (x86)/atmel/studio/7.0/toolchain/avr8/avr8-gnu-toolchain/bin/../lib/gcc/avr/5.4.0/../../../../avr/lib/avr6\libm.a(fp_sinus.o)
                              c:/program files (x86)/atmel/studio/7.0/toolchain/avr8/avr8-gnu-toolchain/bin/../lib/gcc/avr/5.4.0/../../../../avr/lib/avr6\libm.a(cos.o) (__fp_sinus)
c:/program files (x86)/atmel/studio/7.0/toolchain/avr8/avr8-gnu-toolchain/bin/../lib/gcc/avr/5.4.0/../../../../avr/lib/avr6\libm.a(fp_split3.o)
                              c:/program files (x86)/atmel/studio/7.0/toolchain/avr8/avr8-gnu-toolchain/bin/../lib/gcc/avr/5.4.0/../../../../avr/lib/avr6\libm.a(addsf3x.o) (__fp_split3)
c:/program files (x86)/atmel/studio/7.0/toolchain/avr8/avr8-gnu-toolchain/bin/../lib/gcc/avr/5.4.0/../../../../avr/lib/avr6\libm.a(fp_zero.o)
                              c:/program files (x86)/atmel/studio/7.0/toolchain/avr8/avr8-gnu-toolchain/bin/../lib/gcc/avr/5.4.0/../../../../avr/lib/avr6\libm.a(addsf3x.o) (__fp_zero)
c:/program files (x86)/atmel/studio/7.0/toolchain/avr8/avr8-gnu-toolchain/bin/../lib/gcc/avr/5.4.0/../../../../avr/lib/avr6\libm.a(gesf2.o)
                              C:\Users\Vitor\Documents\Atmel Studio\7.0\ArduinoSketch4\ArduinoSketch4\ArduinoCore\Debug\libArduinoCore.a(red_beryl.o) (__gesf2)
c:/program files (x86)/atmel/studio/7.0/toolchain/avr8/avr8-gnu-toolchain/bin/../lib/gcc/avr/5.4.0/../../../../avr/lib/avr6\libm.a(inverse.o)
                              c:/program files (x86)/atmel/studio/7.0/toolchain/avr8/avr8-gnu-toolchain/bin/../lib/gcc/avr/5.4.0/../../../../avr/lib/avr6\libm.a(atan.o) (inverse)
c:/program files (x86)/atmel/studio/7.0/toolchain/avr8/avr8-gnu-toolchain/bin/../lib/gcc/avr/5.4.0/../../../../avr/lib/avr6\libm.a(mulsf3.o)
                              C:\Users\Vitor\Documents\Atmel Studio\7.0\ArduinoSketch4\ArduinoSketch4\ArduinoCore\Debug\libArduinoCore.a(Print.o) (__mulsf3)
c:/program files (x86)/atmel/studio/7.0/toolchain/avr8/avr8-gnu-toolchain/bin/../lib/gcc/avr/5.4.0/../../../../avr/lib/avr6\libm.a(mulsf3x.o)
                              c:/program files (x86)/atmel/studio/7.0/toolchain/avr8/avr8-gnu-toolchain/bin/../lib/gcc/avr/5.4.0/../../../../avr/lib/avr6\libm.a(atan.o) (__mulsf3x)
c:/program files (x86)/atmel/studio/7.0/toolchain/avr8/avr8-gnu-toolchain/bin/../lib/gcc/avr/5.4.0/../../../../avr/lib/avr6\libm.a(sin.o)
                              C:\Users\Vitor\Documents\Atmel Studio\7.0\ArduinoSketch4\ArduinoSketch4\ArduinoCore\Debug\libArduinoCore.a(red_crystal.o) (sin)
c:/program files (x86)/atmel/studio/7.0/toolchain/avr8/avr8-gnu-toolchain/bin/../lib/gcc/avr/5.4.0/../../../../avr/lib/avr6\libm.a(sqrt.o)
                              C:\Users\Vitor\Documents\Atmel Studio\7.0\ArduinoSketch4\ArduinoSketch4\ArduinoCore\Debug\libArduinoCore.a(red_crystal.o) (sqrt)
c:/program files (x86)/atmel/studio/7.0/toolchain/avr8/avr8-gnu-toolchain/bin/../lib/gcc/avr/5.4.0/../../../../avr/lib/avr6\libm.a(square.o)
                              c:/program files (x86)/atmel/studio/7.0/toolchain/avr8/avr8-gnu-toolchain/bin/../lib/gcc/avr/5.4.0/../../../../avr/lib/avr6\libm.a(atan.o) (square)
c:/program files (x86)/atmel/studio/7.0/toolchain/avr8/avr8-gnu-toolchain/bin/../lib/gcc/avr/5.4.0/../../../../avr/lib/avr6\libm.a(unordsf2.o)
                              C:\Users\Vitor\Documents\Atmel Studio\7.0\ArduinoSketch4\ArduinoSketch4\ArduinoCore\Debug\libArduinoCore.a(Print.o) (__unordsf2)
c:/program files (x86)/atmel/studio/7.0/toolchain/avr8/avr8-gnu-toolchain/bin/../lib/gcc/avr/5.4.0/../../../../avr/lib/avr6\libm.a(fp_mpack.o)
                              c:/program files (x86)/atmel/studio/7.0/toolchain/avr8/avr8-gnu-toolchain/bin/../lib/gcc/avr/5.4.0/../../../../avr/lib/avr6\libm.a(sqrt.o) (__fp_mpack)
c:/program files (x86)/atmel/studio/7.0/toolchain/avr8/avr8-gnu-toolchain/bin/../lib/gcc/avr/5.4.0/../../../../avr/lib/avr6\libm.a(fp_norm2.o)
                              c:/program files (x86)/atmel/studio/7.0/toolchain/avr8/avr8-gnu-toolchain/bin/../lib/gcc/avr/5.4.0/../../../../avr/lib/avr6\libm.a(sqrt.o) (__fp_norm2)
c:/program files (x86)/atmel/studio/7.0/toolchain/avr8/avr8-gnu-toolchain/bin/../lib/gcc/avr/5.4.0/../../../../avr/lib/avr6\libm.a(fp_powsodd.o)
                              c:/program files (x86)/atmel/studio/7.0/toolchain/avr8/avr8-gnu-toolchain/bin/../lib/gcc/avr/5.4.0/../../../../avr/lib/avr6\libm.a(fp_sinus.o) (__fp_powsodd)
c:/program files (x86)/atmel/studio/7.0/toolchain/avr8/avr8-gnu-toolchain/bin/../lib/gcc/avr/5.4.0/avr6\libgcc.a(_mulsi3.o)
                              C:\Users\Vitor\Documents\Atmel Studio\7.0\ArduinoSketch4\ArduinoSketch4\ArduinoCore\Debug\libArduinoCore.a(WMath.o) (__mulsi3)
c:/program files (x86)/atmel/studio/7.0/toolchain/avr8/avr8-gnu-toolchain/bin/../lib/gcc/avr/5.4.0/avr6\libgcc.a(_udivmodqi4.o)
                              C:\Users\Vitor\Documents\Atmel Studio\7.0\ArduinoSketch4\ArduinoSketch4\ArduinoCore\Debug\libArduinoCore.a(DS3231.o) (__udivmodqi4)
c:/program files (x86)/atmel/studio/7.0/toolchain/avr8/avr8-gnu-toolchain/bin/../lib/gcc/avr/5.4.0/avr6\libgcc.a(_divmodhi4.o)
                              C:\Users\Vitor\Documents\Atmel Studio\7.0\ArduinoSketch4\ArduinoSketch4\ArduinoCore\Debug\libArduinoCore.a(red_beryl.o) (__divmodhi4)
c:/program files (x86)/atmel/studio/7.0/toolchain/avr8/avr8-gnu-toolchain/bin/../lib/gcc/avr/5.4.0/avr6\libgcc.a(_udivmodsi4.o)
                              C:\Users\Vitor\Documents\Atmel Studio\7.0\ArduinoSketch4\ArduinoSketch4\ArduinoCore\Debug\libArduinoCore.a(HardwareSerial.o) (__udivmodsi4)
c:/program files (x86)/atmel/studio/7.0/toolchain/avr8/avr8-gnu-toolchain/bin/../lib/gcc/avr/5.4.0/avr6\libgcc.a(_divmodsi4.o)
                              C:\Users\Vitor\Documents\Atmel Studio\7.0\ArduinoSketch4\ArduinoSketch4\ArduinoCore\Debug\libArduinoCore.a(red_beryl.o) (__divmodsi4)
c:/program files (x86)/atmel/studio/7.0/toolchain/avr8/avr8-gnu-toolchain/bin/../lib/gcc/avr/5.4.0/avr6\libgcc.a(_negsi2.o)
                              c:/program files (x86)/atmel/studio/7.0/toolchain/avr8/avr8-gnu-toolchain/bin/../lib/gcc/avr/5.4.0/avr6\libgcc.a(_divmodsi4.o) (__negsi2)
c:/program files (x86)/atmel/studio/7.0/toolchain/avr8/avr8-gnu-toolchain/bin/../lib/gcc/avr/5.4.0/avr6\libgcc.a(_exit.o)
                              C:/Program Files (x86)/Atmel/Studio/7.0/Packs/Atmel/ATmega_DFP/1.2.272/gcc/dev/atmega2560/avr6/crtatmega2560.o (exit)
c:/program files (x86)/atmel/studio/7.0/toolchain/avr8/avr8-gnu-toolchain/bin/../lib/gcc/avr/5.4.0/avr6\libgcc.a(_tablejump2.o)
                              C:\Users\Vitor\Documents\Atmel Studio\7.0\ArduinoSketch4\ArduinoSketch4\ArduinoCore\Debug\libArduinoCore.a(SPI.o) (__tablejump2__)
c:/program files (x86)/atmel/studio/7.0/toolchain/avr8/avr8-gnu-toolchain/bin/../lib/gcc/avr/5.4.0/avr6\libgcc.a(_copy_data.o)
                              Sketch.o (__do_copy_data)
c:/program files (x86)/atmel/studio/7.0/toolchain/avr8/avr8-gnu-toolchain/bin/../lib/gcc/avr/5.4.0/avr6\libgcc.a(_clear_bss.o)
                              Sketch.o (__do_clear_bss)
c:/program files (x86)/atmel/studio/7.0/toolchain/avr8/avr8-gnu-toolchain/bin/../lib/gcc/avr/5.4.0/avr6\libgcc.a(_ctors.o)
                              Sketch.o (__do_global_ctors)
c:/program files (x86)/atmel/studio/7.0/toolchain/avr8/avr8-gnu-toolchain/bin/../lib/gcc/avr/5.4.0/avr6\libgcc.a(_umulhisi3.o)
                              C:\Users\Vitor\Documents\Atmel Studio\7.0\ArduinoSketch4\ArduinoSketch4\ArduinoCore\Debug\libArduinoCore.a(DS3231.o) (__umulhisi3)
c:/program files (x86)/atmel/studio/7.0/toolchain/avr8/avr8-gnu-toolchain/bin/../lib/gcc/avr/5.4.0/avr6\libgcc.a(_muluhisi3.o)
                              C:\Users\Vitor\Documents\Atmel Studio\7.0\ArduinoSketch4\ArduinoSketch4\ArduinoCore\Debug\libArduinoCore.a(DS3231.o) (__muluhisi3)
c:/program files (x86)/atmel/studio/7.0/toolchain/avr8/avr8-gnu-toolchain/bin/../lib/gcc/avr/5.4.0/avr6\libgcc.a(_udivmodhi4.o)
                              c:/program files (x86)/atmel/studio/7.0/toolchain/avr8/avr8-gnu-toolchain/bin/../lib/gcc/avr/5.4.0/avr6\libgcc.a(_divmodhi4.o) (__udivmodhi4)
c:/program files (x86)/atmel/studio/7.0/toolchain/avr8/avr8-gnu-toolchain/bin/../lib/gcc/avr/5.4.0/../../../../avr/lib/avr6\libc.a(dtostrf.o)
                              C:\Users\Vitor\Documents\Atmel Studio\7.0\ArduinoSketch4\ArduinoSketch4\ArduinoCore\Debug\libArduinoCore.a(red_fang.o) (dtostrf)
c:/program files (x86)/atmel/studio/7.0/toolchain/avr8/avr8-gnu-toolchain/bin/../lib/gcc/avr/5.4.0/../../../../avr/lib/avr6\libc.a(malloc.o)
                              C:\Users\Vitor\Documents\Atmel Studio\7.0\ArduinoSketch4\ArduinoSketch4\ArduinoCore\Debug\libArduinoCore.a(new.o) (malloc)
c:/program files (x86)/atmel/studio/7.0/toolchain/avr8/avr8-gnu-toolchain/bin/../lib/gcc/avr/5.4.0/../../../../avr/lib/avr6\libc.a(random.o)
                              C:\Users\Vitor\Documents\Atmel Studio\7.0\ArduinoSketch4\ArduinoSketch4\ArduinoCore\Debug\libArduinoCore.a(WMath.o) (random)
c:/program files (x86)/atmel/studio/7.0/toolchain/avr8/avr8-gnu-toolchain/bin/../lib/gcc/avr/5.4.0/../../../../avr/lib/avr6\libc.a(strtol.o)
                              C:\Users\Vitor\Documents\Atmel Studio\7.0\ArduinoSketch4\ArduinoSketch4\ArduinoCore\Debug\libArduinoCore.a(red_fang.o) (strtol)
c:/program files (x86)/atmel/studio/7.0/toolchain/avr8/avr8-gnu-toolchain/bin/../lib/gcc/avr/5.4.0/../../../../avr/lib/avr6\libc.a(abort.o)
                              C:\Users\Vitor\Documents\Atmel Studio\7.0\ArduinoSketch4\ArduinoSketch4\ArduinoCore\Debug\libArduinoCore.a(abi.o) (abort)
c:/program files (x86)/atmel/studio/7.0/toolchain/avr8/avr8-gnu-toolchain/bin/../lib/gcc/avr/5.4.0/../../../../avr/lib/avr6\libc.a(isspace.o)
                              c:/program files (x86)/atmel/studio/7.0/toolchain/avr8/avr8-gnu-toolchain/bin/../lib/gcc/avr/5.4.0/../../../../avr/lib/avr6\libc.a(strtol.o) (isspace)
c:/program files (x86)/atmel/studio/7.0/toolchain/avr8/avr8-gnu-toolchain/bin/../lib/gcc/avr/5.4.0/../../../../avr/lib/avr6\libc.a(memset.o)
                              C:\Users\Vitor\Documents\Atmel Studio\7.0\ArduinoSketch4\ArduinoSketch4\ArduinoCore\Debug\libArduinoCore.a(Adafruit_GFX.o) (memset)
c:/program files (x86)/atmel/studio/7.0/toolchain/avr8/avr8-gnu-toolchain/bin/../lib/gcc/avr/5.4.0/../../../../avr/lib/avr6\libc.a(strcat.o)
                              C:\Users\Vitor\Documents\Atmel Studio\7.0\ArduinoSketch4\ArduinoSketch4\ArduinoCore\Debug\libArduinoCore.a(red_fang.o) (strcat)
c:/program files (x86)/atmel/studio/7.0/toolchain/avr8/avr8-gnu-toolchain/bin/../lib/gcc/avr/5.4.0/../../../../avr/lib/avr6\libc.a(strcmp.o)
                              C:\Users\Vitor\Documents\Atmel Studio\7.0\ArduinoSketch4\ArduinoSketch4\ArduinoCore\Debug\libArduinoCore.a(red_fang.o) (strcmp)
c:/program files (x86)/atmel/studio/7.0/toolchain/avr8/avr8-gnu-toolchain/bin/../lib/gcc/avr/5.4.0/../../../../avr/lib/avr6\libc.a(strcpy.o)
                              C:\Users\Vitor\Documents\Atmel Studio\7.0\ArduinoSketch4\ArduinoSketch4\ArduinoCore\Debug\libArduinoCore.a(red_fang.o) (strcpy)
c:/program files (x86)/atmel/studio/7.0/toolchain/avr8/avr8-gnu-toolchain/bin/../lib/gcc/avr/5.4.0/../../../../avr/lib/avr6\libc.a(strncpy.o)
                              C:\Users\Vitor\Documents\Atmel Studio\7.0\ArduinoSketch4\ArduinoSketch4\ArduinoCore\Debug\libArduinoCore.a(Adafruit_GFX.o) (strncpy)
c:/program files (x86)/atmel/studio/7.0/toolchain/avr8/avr8-gnu-toolchain/bin/../lib/gcc/avr/5.4.0/../../../../avr/lib/avr6\libc.a(itoa_ncheck.o)
                              C:\Users\Vitor\Documents\Atmel Studio\7.0\ArduinoSketch4\ArduinoSketch4\ArduinoCore\Debug\libArduinoCore.a(red_fang.o) (__itoa_ncheck)
c:/program files (x86)/atmel/studio/7.0/toolchain/avr8/avr8-gnu-toolchain/bin/../lib/gcc/avr/5.4.0/../../../../avr/lib/avr6\libc.a(utoa_ncheck.o)
                              c:/program files (x86)/atmel/studio/7.0/toolchain/avr8/avr8-gnu-toolchain/bin/../lib/gcc/avr/5.4.0/../../../../avr/lib/avr6\libc.a(itoa_ncheck.o) (__utoa_common)
c:/program files (x86)/atmel/studio/7.0/toolchain/avr8/avr8-gnu-toolchain/bin/../lib/gcc/avr/5.4.0/../../../../avr/lib/avr6\libc.a(snprintf.o)
                              C:\Users\Vitor\Documents\Atmel Studio\7.0\ArduinoSketch4\ArduinoSketch4\ArduinoCore\Debug\libArduinoCore.a(red_fang.o) (snprintf)
c:/program files (x86)/atmel/studio/7.0/toolchain/avr8/avr8-gnu-toolchain/bin/../lib/gcc/avr/5.4.0/../../../../avr/lib/avr6\libc.a(vfprintf_std.o)
                              c:/program files (x86)/atmel/studio/7.0/toolchain/avr8/avr8-gnu-toolchain/bin/../lib/gcc/avr/5.4.0/../../../../avr/lib/avr6\libc.a(snprintf.o) (vfprintf)
c:/program files (x86)/atmel/studio/7.0/toolchain/avr8/avr8-gnu-toolchain/bin/../lib/gcc/avr/5.4.0/../../../../avr/lib/avr6\libc.a(errno.o)
                              c:/program files (x86)/atmel/studio/7.0/toolchain/avr8/avr8-gnu-toolchain/bin/../lib/gcc/avr/5.4.0/../../../../avr/lib/avr6\libc.a(strtol.o) (errno)
c:/program files (x86)/atmel/studio/7.0/toolchain/avr8/avr8-gnu-toolchain/bin/../lib/gcc/avr/5.4.0/../../../../avr/lib/avr6\libc.a(dtoa_prf.o)
                              c:/program files (x86)/atmel/studio/7.0/toolchain/avr8/avr8-gnu-toolchain/bin/../lib/gcc/avr/5.4.0/../../../../avr/lib/avr6\libc.a(dtostrf.o) (dtoa_prf)
c:/program files (x86)/atmel/studio/7.0/toolchain/avr8/avr8-gnu-toolchain/bin/../lib/gcc/avr/5.4.0/../../../../avr/lib/avr6\libc.a(ftoa_engine.o)
                              c:/program files (x86)/atmel/studio/7.0/toolchain/avr8/avr8-gnu-toolchain/bin/../lib/gcc/avr/5.4.0/../../../../avr/lib/avr6\libc.a(dtoa_prf.o) (__ftoa_engine)
c:/program files (x86)/atmel/studio/7.0/toolchain/avr8/avr8-gnu-toolchain/bin/../lib/gcc/avr/5.4.0/../../../../avr/lib/avr6\libc.a(cty_isfalse.o)
                              c:/program files (x86)/atmel/studio/7.0/toolchain/avr8/avr8-gnu-toolchain/bin/../lib/gcc/avr/5.4.0/../../../../avr/lib/avr6\libc.a(isspace.o) (__ctype_isfalse)
c:/program files (x86)/atmel/studio/7.0/toolchain/avr8/avr8-gnu-toolchain/bin/../lib/gcc/avr/5.4.0/../../../../avr/lib/avr6\libc.a(strnlen_P.o)
                              c:/program files (x86)/atmel/studio/7.0/toolchain/avr8/avr8-gnu-toolchain/bin/../lib/gcc/avr/5.4.0/../../../../avr/lib/avr6\libc.a(vfprintf_std.o) (strnlen_P)
c:/program files (x86)/atmel/studio/7.0/toolchain/avr8/avr8-gnu-toolchain/bin/../lib/gcc/avr/5.4.0/../../../../avr/lib/avr6\libc.a(strnlen.o)
                              c:/program files (x86)/atmel/studio/7.0/toolchain/avr8/avr8-gnu-toolchain/bin/../lib/gcc/avr/5.4.0/../../../../avr/lib/avr6\libc.a(vfprintf_std.o) (strnlen)
c:/program files (x86)/atmel/studio/7.0/toolchain/avr8/avr8-gnu-toolchain/bin/../lib/gcc/avr/5.4.0/../../../../avr/lib/avr6\libc.a(strrev.o)
                              c:/program files (x86)/atmel/studio/7.0/toolchain/avr8/avr8-gnu-toolchain/bin/../lib/gcc/avr/5.4.0/../../../../avr/lib/avr6\libc.a(utoa_ncheck.o) (strrev)
c:/program files (x86)/atmel/studio/7.0/toolchain/avr8/avr8-gnu-toolchain/bin/../lib/gcc/avr/5.4.0/../../../../avr/lib/avr6\libc.a(fputc.o)
                              c:/program files (x86)/atmel/studio/7.0/toolchain/avr8/avr8-gnu-toolchain/bin/../lib/gcc/avr/5.4.0/../../../../avr/lib/avr6\libc.a(vfprintf_std.o) (fputc)
c:/program files (x86)/atmel/studio/7.0/toolchain/avr8/avr8-gnu-toolchain/bin/../lib/gcc/avr/5.4.0/../../../../avr/lib/avr6\libc.a(ultoa_invert.o)
                              c:/program files (x86)/atmel/studio/7.0/toolchain/avr8/avr8-gnu-toolchain/bin/../lib/gcc/avr/5.4.0/../../../../avr/lib/avr6\libc.a(vfprintf_std.o) (__ultoa_invert)
C:/Program Files (x86)/Atmel/Studio/7.0/Packs/Atmel/ATmega_DFP/1.2.272/gcc/dev/atmega2560/avr6\libatmega2560.a(eerd_byte.o)
                              C:\Users\Vitor\Documents\Atmel Studio\7.0\ArduinoSketch4\ArduinoSketch4\ArduinoCore\Debug\libArduinoCore.a(red_beryl.o) (eeprom_read_byte)
C:/Program Files (x86)/Atmel/Studio/7.0/Packs/Atmel/ATmega_DFP/1.2.272/gcc/dev/atmega2560/avr6\libatmega2560.a(eewr_byte.o)
                              C:\Users\Vitor\Documents\Atmel Studio\7.0\ArduinoSketch4\ArduinoSketch4\ArduinoCore\Debug\libArduinoCore.a(red_beryl.o) (eeprom_write_byte)
c:/program files (x86)/atmel/studio/7.0/toolchain/avr8/avr8-gnu-toolchain/bin/../lib/gcc/avr/5.4.0/avr6\libgcc.a(_mulshisi3.o)
                              c:/program files (x86)/atmel/studio/7.0/toolchain/avr8/avr8-gnu-toolchain/bin/../lib/gcc/avr/5.4.0/../../../../avr/lib/avr6\libc.a(random.o) (__mulohisi3)

Allocating common symbols
Common symbol       size              file

errno               0x2               c:/program files (x86)/atmel/studio/7.0/toolchain/avr8/avr8-gnu-toolchain/bin/../lib/gcc/avr/5.4.0/../../../../avr/lib/avr6\libc.a(errno.o)
__brkval            0x2               c:/program files (x86)/atmel/studio/7.0/toolchain/avr8/avr8-gnu-toolchain/bin/../lib/gcc/avr/5.4.0/../../../../avr/lib/avr6\libc.a(malloc.o)
__flp               0x2               c:/program files (x86)/atmel/studio/7.0/toolchain/avr8/avr8-gnu-toolchain/bin/../lib/gcc/avr/5.4.0/../../../../avr/lib/avr6\libc.a(malloc.o)

Discarded input sections

 .data          0x00000000        0x0 C:/Program Files (x86)/Atmel/Studio/7.0/Packs/Atmel/ATmega_DFP/1.2.272/gcc/dev/atmega2560/avr6/crtatmega2560.o
 .bss           0x00000000        0x0 C:/Program Files (x86)/Atmel/Studio/7.0/Packs/Atmel/ATmega_DFP/1.2.272/gcc/dev/atmega2560/avr6/crtatmega2560.o
 .text          0x00000000        0x0 Sketch.o
 .data          0x00000000        0x0 Sketch.o
 .bss           0x00000000        0x0 Sketch.o
 .text._Z10freeMemoryv
                0x00000000       0x22 Sketch.o
 .group         0x00000000        0x8 C:\Users\Vitor\Documents\Atmel Studio\7.0\ArduinoSketch4\ArduinoSketch4\ArduinoCore\Debug\libArduinoCore.a(HardwareSerial.o)
 .text          0x00000000        0x0 C:\Users\Vitor\Documents\Atmel Studio\7.0\ArduinoSketch4\ArduinoSketch4\ArduinoCore\Debug\libArduinoCore.a(HardwareSerial.o)
 .data          0x00000000        0x0 C:\Users\Vitor\Documents\Atmel Studio\7.0\ArduinoSketch4\ArduinoSketch4\ArduinoCore\Debug\libArduinoCore.a(HardwareSerial.o)
 .bss           0x00000000        0x0 C:\Users\Vitor\Documents\Atmel Studio\7.0\ArduinoSketch4\ArduinoSketch4\ArduinoCore\Debug\libArduinoCore.a(HardwareSerial.o)
 .group         0x00000000        0x8 C:\Users\Vitor\Documents\Atmel Studio\7.0\ArduinoSketch4\ArduinoSketch4\ArduinoCore\Debug\libArduinoCore.a(HardwareSerial0.o)
 .group         0x00000000        0x8 C:\Users\Vitor\Documents\Atmel Studio\7.0\ArduinoSketch4\ArduinoSketch4\ArduinoCore\Debug\libArduinoCore.a(HardwareSerial0.o)
 .text          0x00000000        0x0 C:\Users\Vitor\Documents\Atmel Studio\7.0\ArduinoSketch4\ArduinoSketch4\ArduinoCore\Debug\libArduinoCore.a(HardwareSerial0.o)
 .data          0x00000000        0x0 C:\Users\Vitor\Documents\Atmel Studio\7.0\ArduinoSketch4\ArduinoSketch4\ArduinoCore\Debug\libArduinoCore.a(HardwareSerial0.o)
 .bss           0x00000000        0x0 C:\Users\Vitor\Documents\Atmel Studio\7.0\ArduinoSketch4\ArduinoSketch4\ArduinoCore\Debug\libArduinoCore.a(HardwareSerial0.o)
 .text          0x00000000        0x0 C:\Users\Vitor\Documents\Atmel Studio\7.0\ArduinoSketch4\ArduinoSketch4\ArduinoCore\Debug\libArduinoCore.a(main.o)
 .data          0x00000000        0x0 C:\Users\Vitor\Documents\Atmel Studio\7.0\ArduinoSketch4\ArduinoSketch4\ArduinoCore\Debug\libArduinoCore.a(main.o)
 .bss           0x00000000        0x0 C:\Users\Vitor\Documents\Atmel Studio\7.0\ArduinoSketch4\ArduinoSketch4\ArduinoCore\Debug\libArduinoCore.a(main.o)
 .text.atexit   0x00000000        0x6 C:\Users\Vitor\Documents\Atmel Studio\7.0\ArduinoSketch4\ArduinoSketch4\ArduinoCore\Debug\libArduinoCore.a(main.o)
 .text._Z8setupUSBv
                0x00000000        0x2 C:\Users\Vitor\Documents\Atmel Studio\7.0\ArduinoSketch4\ArduinoSketch4\ArduinoCore\Debug\libArduinoCore.a(main.o)
 .text          0x00000000        0x0 C:\Users\Vitor\Documents\Atmel Studio\7.0\ArduinoSketch4\ArduinoSketch4\ArduinoCore\Debug\libArduinoCore.a(new.o)
 .data          0x00000000        0x0 C:\Users\Vitor\Documents\Atmel Studio\7.0\ArduinoSketch4\ArduinoSketch4\ArduinoCore\Debug\libArduinoCore.a(new.o)
 .bss           0x00000000        0x0 C:\Users\Vitor\Documents\Atmel Studio\7.0\ArduinoSketch4\ArduinoSketch4\ArduinoCore\Debug\libArduinoCore.a(new.o)
 .text._ZdlPv   0x00000000        0x4 C:\Users\Vitor\Documents\Atmel Studio\7.0\ArduinoSketch4\ArduinoSketch4\ArduinoCore\Debug\libArduinoCore.a(new.o)
 .group         0x00000000        0x8 C:\Users\Vitor\Documents\Atmel Studio\7.0\ArduinoSketch4\ArduinoSketch4\ArduinoCore\Debug\libArduinoCore.a(Print.o)
 .group         0x00000000        0x8 C:\Users\Vitor\Documents\Atmel Studio\7.0\ArduinoSketch4\ArduinoSketch4\ArduinoCore\Debug\libArduinoCore.a(Print.o)
 .group         0x00000000        0x8 C:\Users\Vitor\Documents\Atmel Studio\7.0\ArduinoSketch4\ArduinoSketch4\ArduinoCore\Debug\libArduinoCore.a(Print.o)
 .group         0x00000000        0x8 C:\Users\Vitor\Documents\Atmel Studio\7.0\ArduinoSketch4\ArduinoSketch4\ArduinoCore\Debug\libArduinoCore.a(Print.o)
 .text          0x00000000        0x0 C:\Users\Vitor\Documents\Atmel Studio\7.0\ArduinoSketch4\ArduinoSketch4\ArduinoCore\Debug\libArduinoCore.a(Print.o)
 .data          0x00000000        0x0 C:\Users\Vitor\Documents\Atmel Studio\7.0\ArduinoSketch4\ArduinoSketch4\ArduinoCore\Debug\libArduinoCore.a(Print.o)
 .bss           0x00000000        0x0 C:\Users\Vitor\Documents\Atmel Studio\7.0\ArduinoSketch4\ArduinoSketch4\ArduinoCore\Debug\libArduinoCore.a(Print.o)
 .text._ZN5Print17availableForWriteEv
                0x00000000        0x6 C:\Users\Vitor\Documents\Atmel Studio\7.0\ArduinoSketch4\ArduinoSketch4\ArduinoCore\Debug\libArduinoCore.a(Print.o)
 .text._ZN5Print5flushEv
                0x00000000        0x2 C:\Users\Vitor\Documents\Atmel Studio\7.0\ArduinoSketch4\ArduinoSketch4\ArduinoCore\Debug\libArduinoCore.a(Print.o)
 .text._ZN5Print5printEPK19__FlashStringHelper
                0x00000000       0x48 C:\Users\Vitor\Documents\Atmel Studio\7.0\ArduinoSketch4\ArduinoSketch4\ArduinoCore\Debug\libArduinoCore.a(Print.o)
 .text._ZN5Print5printERK6String
                0x00000000       0x1c C:\Users\Vitor\Documents\Atmel Studio\7.0\ArduinoSketch4\ArduinoSketch4\ArduinoCore\Debug\libArduinoCore.a(Print.o)
 .text._ZN5Print5printERK9Printable
                0x00000000       0x14 C:\Users\Vitor\Documents\Atmel Studio\7.0\ArduinoSketch4\ArduinoSketch4\ArduinoCore\Debug\libArduinoCore.a(Print.o)
 .text._ZN5Print7printlnEPK19__FlashStringHelper
                0x00000000       0x24 C:\Users\Vitor\Documents\Atmel Studio\7.0\ArduinoSketch4\ArduinoSketch4\ArduinoCore\Debug\libArduinoCore.a(Print.o)
 .text._ZN5Print7printlnERK6String
                0x00000000       0x24 C:\Users\Vitor\Documents\Atmel Studio\7.0\ArduinoSketch4\ArduinoSketch4\ArduinoCore\Debug\libArduinoCore.a(Print.o)
 .text._ZN5Print7printlnEc
                0x00000000       0x24 C:\Users\Vitor\Documents\Atmel Studio\7.0\ArduinoSketch4\ArduinoSketch4\ArduinoCore\Debug\libArduinoCore.a(Print.o)
 .text._ZN5Print7printlnERK9Printable
                0x00000000       0x24 C:\Users\Vitor\Documents\Atmel Studio\7.0\ArduinoSketch4\ArduinoSketch4\ArduinoCore\Debug\libArduinoCore.a(Print.o)
 .text._ZN5Print7printlnEmi
                0x00000000       0x24 C:\Users\Vitor\Documents\Atmel Studio\7.0\ArduinoSketch4\ArduinoSketch4\ArduinoCore\Debug\libArduinoCore.a(Print.o)
 .rodata._ZTV5Print
                0x00000000        0xc C:\Users\Vitor\Documents\Atmel Studio\7.0\ArduinoSketch4\ArduinoSketch4\ArduinoCore\Debug\libArduinoCore.a(Print.o)
 .text          0x00000000        0x0 C:\Users\Vitor\Documents\Atmel Studio\7.0\ArduinoSketch4\ArduinoSketch4\ArduinoCore\Debug\libArduinoCore.a(wiring.o)
 .data          0x00000000        0x0 C:\Users\Vitor\Documents\Atmel Studio\7.0\ArduinoSketch4\ArduinoSketch4\ArduinoCore\Debug\libArduinoCore.a(wiring.o)
 .bss           0x00000000        0x0 C:\Users\Vitor\Documents\Atmel Studio\7.0\ArduinoSketch4\ArduinoSketch4\ArduinoCore\Debug\libArduinoCore.a(wiring.o)
 .text.delayMicroseconds
                0x00000000       0x16 C:\Users\Vitor\Documents\Atmel Studio\7.0\ArduinoSketch4\ArduinoSketch4\ArduinoCore\Debug\libArduinoCore.a(wiring.o)
 .group         0x00000000        0x8 C:\Users\Vitor\Documents\Atmel Studio\7.0\ArduinoSketch4\ArduinoSketch4\ArduinoCore\Debug\libArduinoCore.a(Adafruit_SSD1306.o)
 .group         0x00000000        0x8 C:\Users\Vitor\Documents\Atmel Studio\7.0\ArduinoSketch4\ArduinoSketch4\ArduinoCore\Debug\libArduinoCore.a(Adafruit_SSD1306.o)
 .group         0x00000000        0x8 C:\Users\Vitor\Documents\Atmel Studio\7.0\ArduinoSketch4\ArduinoSketch4\ArduinoCore\Debug\libArduinoCore.a(Adafruit_SSD1306.o)
 .group         0x00000000        0x8 C:\Users\Vitor\Documents\Atmel Studio\7.0\ArduinoSketch4\ArduinoSketch4\ArduinoCore\Debug\libArduinoCore.a(Adafruit_SSD1306.o)
 .group         0x00000000        0x8 C:\Users\Vitor\Documents\Atmel Studio\7.0\ArduinoSketch4\ArduinoSketch4\ArduinoCore\Debug\libArduinoCore.a(Adafruit_SSD1306.o)
 .group         0x00000000        0x8 C:\Users\Vitor\Documents\Atmel Studio\7.0\ArduinoSketch4\ArduinoSketch4\ArduinoCore\Debug\libArduinoCore.a(Adafruit_SSD1306.o)
 .text          0x00000000        0x0 C:\Users\Vitor\Documents\Atmel Studio\7.0\ArduinoSketch4\ArduinoSketch4\ArduinoCore\Debug\libArduinoCore.a(Adafruit_SSD1306.o)
 .data          0x00000000        0x0 C:\Users\Vitor\Documents\Atmel Studio\7.0\ArduinoSketch4\ArduinoSketch4\ArduinoCore\Debug\libArduinoCore.a(Adafruit_SSD1306.o)
 .bss           0x00000000        0x0 C:\Users\Vitor\Documents\Atmel Studio\7.0\ArduinoSketch4\ArduinoSketch4\ArduinoCore\Debug\libArduinoCore.a(Adafruit_SSD1306.o)
 .text._ZN5Print17availableForWriteEv
                0x00000000        0x6 C:\Users\Vitor\Documents\Atmel Studio\7.0\ArduinoSketch4\ArduinoSketch4\ArduinoCore\Debug\libArduinoCore.a(Adafruit_SSD1306.o)
 .text._ZN5Print5flushEv
                0x00000000        0x2 C:\Users\Vitor\Documents\Atmel Studio\7.0\ArduinoSketch4\ArduinoSketch4\ArduinoCore\Debug\libArduinoCore.a(Adafruit_SSD1306.o)
 .text._ZN16Adafruit_SSD1306C2Eaaaaa
                0x00000000       0x46 C:\Users\Vitor\Documents\Atmel Studio\7.0\ArduinoSketch4\ArduinoSketch4\ArduinoCore\Debug\libArduinoCore.a(Adafruit_SSD1306.o)
 .text._ZN16Adafruit_SSD1306C2Eaaa
                0x00000000       0x3c C:\Users\Vitor\Documents\Atmel Studio\7.0\ArduinoSketch4\ArduinoSketch4\ArduinoCore\Debug\libArduinoCore.a(Adafruit_SSD1306.o)
 .text._ZN16Adafruit_SSD130613invertDisplayEh
                0x00000000        0xe C:\Users\Vitor\Documents\Atmel Studio\7.0\ArduinoSketch4\ArduinoSketch4\ArduinoCore\Debug\libArduinoCore.a(Adafruit_SSD1306.o)
 .text._ZN16Adafruit_SSD130616startscrollrightEhh
                0x00000000       0x54 C:\Users\Vitor\Documents\Atmel Studio\7.0\ArduinoSketch4\ArduinoSketch4\ArduinoCore\Debug\libArduinoCore.a(Adafruit_SSD1306.o)
 .text._ZN16Adafruit_SSD130615startscrollleftEhh
                0x00000000       0x54 C:\Users\Vitor\Documents\Atmel Studio\7.0\ArduinoSketch4\ArduinoSketch4\ArduinoCore\Debug\libArduinoCore.a(Adafruit_SSD1306.o)
 .text._ZN16Adafruit_SSD130620startscrolldiagrightEhh
                0x00000000       0x64 C:\Users\Vitor\Documents\Atmel Studio\7.0\ArduinoSketch4\ArduinoSketch4\ArduinoCore\Debug\libArduinoCore.a(Adafruit_SSD1306.o)
 .text._ZN16Adafruit_SSD130619startscrolldiagleftEhh
                0x00000000       0x64 C:\Users\Vitor\Documents\Atmel Studio\7.0\ArduinoSketch4\ArduinoSketch4\ArduinoCore\Debug\libArduinoCore.a(Adafruit_SSD1306.o)
 .text._ZN16Adafruit_SSD130610stopscrollEv
                0x00000000        0x6 C:\Users\Vitor\Documents\Atmel Studio\7.0\ArduinoSketch4\ArduinoSketch4\ArduinoCore\Debug\libArduinoCore.a(Adafruit_SSD1306.o)
 .text._ZN16Adafruit_SSD13063dimEb
                0x00000000       0x32 C:\Users\Vitor\Documents\Atmel Studio\7.0\ArduinoSketch4\ArduinoSketch4\ArduinoCore\Debug\libArduinoCore.a(Adafruit_SSD1306.o)
 .text          0x00000000        0x0 C:\Users\Vitor\Documents\Atmel Studio\7.0\ArduinoSketch4\ArduinoSketch4\ArduinoCore\Debug\libArduinoCore.a(red_beryl.o)
 .data          0x00000000        0x0 C:\Users\Vitor\Documents\Atmel Studio\7.0\ArduinoSketch4\ArduinoSketch4\ArduinoCore\Debug\libArduinoCore.a(red_beryl.o)
 .bss           0x00000000        0x0 C:\Users\Vitor\Documents\Atmel Studio\7.0\ArduinoSketch4\ArduinoSketch4\ArduinoCore\Debug\libArduinoCore.a(red_beryl.o)
 .text._ZN9red_beryl12nova_leituraEv
                0x00000000        0x2 C:\Users\Vitor\Documents\Atmel Studio\7.0\ArduinoSketch4\ArduinoSketch4\ArduinoCore\Debug\libArduinoCore.a(red_beryl.o)
 .text          0x00000000        0x0 C:\Users\Vitor\Documents\Atmel Studio\7.0\ArduinoSketch4\ArduinoSketch4\ArduinoCore\Debug\libArduinoCore.a(red_crystal.o)
 .data          0x00000000        0x0 C:\Users\Vitor\Documents\Atmel Studio\7.0\ArduinoSketch4\ArduinoSketch4\ArduinoCore\Debug\libArduinoCore.a(red_crystal.o)
 .bss           0x00000000        0x0 C:\Users\Vitor\Documents\Atmel Studio\7.0\ArduinoSketch4\ArduinoSketch4\ArduinoCore\Debug\libArduinoCore.a(red_crystal.o)
 .text          0x00000000        0x0 C:\Users\Vitor\Documents\Atmel Studio\7.0\ArduinoSketch4\ArduinoSketch4\ArduinoCore\Debug\libArduinoCore.a(red_fang.o)
 .data          0x00000000        0x0 C:\Users\Vitor\Documents\Atmel Studio\7.0\ArduinoSketch4\ArduinoSketch4\ArduinoCore\Debug\libArduinoCore.a(red_fang.o)
 .bss           0x00000000        0x0 C:\Users\Vitor\Documents\Atmel Studio\7.0\ArduinoSketch4\ArduinoSketch4\ArduinoCore\Debug\libArduinoCore.a(red_fang.o)
 .text          0x00000000        0x0 C:\Users\Vitor\Documents\Atmel Studio\7.0\ArduinoSketch4\ArduinoSketch4\ArduinoCore\Debug\libArduinoCore.a(red_quartz.o)
 .data          0x00000000        0x0 C:\Users\Vitor\Documents\Atmel Studio\7.0\ArduinoSketch4\ArduinoSketch4\ArduinoCore\Debug\libArduinoCore.a(red_quartz.o)
 .bss           0x00000000        0x0 C:\Users\Vitor\Documents\Atmel Studio\7.0\ArduinoSketch4\ArduinoSketch4\ArduinoCore\Debug\libArduinoCore.a(red_quartz.o)
 .text._ZN10red_quartz7segundoEv
                0x00000000        0x8 C:\Users\Vitor\Documents\Atmel Studio\7.0\ArduinoSketch4\ArduinoSketch4\ArduinoCore\Debug\libArduinoCore.a(red_quartz.o)
 .text          0x00000000        0x0 C:\Users\Vitor\Documents\Atmel Studio\7.0\ArduinoSketch4\ArduinoSketch4\ArduinoCore\Debug\libArduinoCore.a(SPI.o)
 .data          0x00000000        0x0 C:\Users\Vitor\Documents\Atmel Studio\7.0\ArduinoSketch4\ArduinoSketch4\ArduinoCore\Debug\libArduinoCore.a(SPI.o)
 .bss           0x00000000        0x0 C:\Users\Vitor\Documents\Atmel Studio\7.0\ArduinoSketch4\ArduinoSketch4\ArduinoCore\Debug\libArduinoCore.a(SPI.o)
 .text._ZN8SPIClass3endEv
                0x00000000       0x28 C:\Users\Vitor\Documents\Atmel Studio\7.0\ArduinoSketch4\ArduinoSketch4\ArduinoCore\Debug\libArduinoCore.a(SPI.o)
 .text._ZN8SPIClass14usingInterruptEh
                0x00000000       0x5e C:\Users\Vitor\Documents\Atmel Studio\7.0\ArduinoSketch4\ArduinoSketch4\ArduinoCore\Debug\libArduinoCore.a(SPI.o)
 .progmem.gcc_sw_table._ZN8SPIClass14usingInterruptEh
                0x00000000       0x10 C:\Users\Vitor\Documents\Atmel Studio\7.0\ArduinoSketch4\ArduinoSketch4\ArduinoCore\Debug\libArduinoCore.a(SPI.o)
 .text._ZN8SPIClass17notUsingInterruptEh
                0x00000000       0x36 C:\Users\Vitor\Documents\Atmel Studio\7.0\ArduinoSketch4\ArduinoSketch4\ArduinoCore\Debug\libArduinoCore.a(SPI.o)
 .rodata.CSWTCH.20
                0x00000000        0x8 C:\Users\Vitor\Documents\Atmel Studio\7.0\ArduinoSketch4\ArduinoSketch4\ArduinoCore\Debug\libArduinoCore.a(SPI.o)
 .bss.SPI       0x00000000        0x1 C:\Users\Vitor\Documents\Atmel Studio\7.0\ArduinoSketch4\ArduinoSketch4\ArduinoCore\Debug\libArduinoCore.a(SPI.o)
 .group         0x00000000        0x8 C:\Users\Vitor\Documents\Atmel Studio\7.0\ArduinoSketch4\ArduinoSketch4\ArduinoCore\Debug\libArduinoCore.a(Wire.o)
 .group         0x00000000        0x8 C:\Users\Vitor\Documents\Atmel Studio\7.0\ArduinoSketch4\ArduinoSketch4\ArduinoCore\Debug\libArduinoCore.a(Wire.o)
 .group         0x00000000        0x8 C:\Users\Vitor\Documents\Atmel Studio\7.0\ArduinoSketch4\ArduinoSketch4\ArduinoCore\Debug\libArduinoCore.a(Wire.o)
 .text          0x00000000        0x0 C:\Users\Vitor\Documents\Atmel Studio\7.0\ArduinoSketch4\ArduinoSketch4\ArduinoCore\Debug\libArduinoCore.a(Wire.o)
 .data          0x00000000        0x0 C:\Users\Vitor\Documents\Atmel Studio\7.0\ArduinoSketch4\ArduinoSketch4\ArduinoCore\Debug\libArduinoCore.a(Wire.o)
 .bss           0x00000000        0x0 C:\Users\Vitor\Documents\Atmel Studio\7.0\ArduinoSketch4\ArduinoSketch4\ArduinoCore\Debug\libArduinoCore.a(Wire.o)
 .text._ZN5Print17availableForWriteEv
                0x00000000        0x6 C:\Users\Vitor\Documents\Atmel Studio\7.0\ArduinoSketch4\ArduinoSketch4\ArduinoCore\Debug\libArduinoCore.a(Wire.o)
 .text._ZN5Print5flushEv
                0x00000000        0x2 C:\Users\Vitor\Documents\Atmel Studio\7.0\ArduinoSketch4\ArduinoSketch4\ArduinoCore\Debug\libArduinoCore.a(Wire.o)
 .text._ZN7TwoWire16onReceiveServiceEPhi
                0x00000000       0x54 C:\Users\Vitor\Documents\Atmel Studio\7.0\ArduinoSketch4\ArduinoSketch4\ArduinoCore\Debug\libArduinoCore.a(Wire.o)
 .text._ZN7TwoWire16onRequestServiceEv
                0x00000000       0x18 C:\Users\Vitor\Documents\Atmel Studio\7.0\ArduinoSketch4\ArduinoSketch4\ArduinoCore\Debug\libArduinoCore.a(Wire.o)
 .text._ZN7TwoWire5beginEh
                0x00000000       0x26 C:\Users\Vitor\Documents\Atmel Studio\7.0\ArduinoSketch4\ArduinoSketch4\ArduinoCore\Debug\libArduinoCore.a(Wire.o)
 .text._ZN7TwoWire5beginEi
                0x00000000        0x4 C:\Users\Vitor\Documents\Atmel Studio\7.0\ArduinoSketch4\ArduinoSketch4\ArduinoCore\Debug\libArduinoCore.a(Wire.o)
 .text._ZN7TwoWire3endEv
                0x00000000        0x4 C:\Users\Vitor\Documents\Atmel Studio\7.0\ArduinoSketch4\ArduinoSketch4\ArduinoCore\Debug\libArduinoCore.a(Wire.o)
 .text._ZN7TwoWire11requestFromEhh
                0x00000000        0x6 C:\Users\Vitor\Documents\Atmel Studio\7.0\ArduinoSketch4\ArduinoSketch4\ArduinoCore\Debug\libArduinoCore.a(Wire.o)
 .text._ZN7TwoWire11requestFromEiii
                0x00000000        0x4 C:\Users\Vitor\Documents\Atmel Studio\7.0\ArduinoSketch4\ArduinoSketch4\ArduinoCore\Debug\libArduinoCore.a(Wire.o)
 .text._ZN7TwoWire9onReceiveEPFviE
                0x00000000        0xa C:\Users\Vitor\Documents\Atmel Studio\7.0\ArduinoSketch4\ArduinoSketch4\ArduinoCore\Debug\libArduinoCore.a(Wire.o)
 .text._ZN7TwoWire9onRequestEPFvvE
                0x00000000        0xa C:\Users\Vitor\Documents\Atmel Studio\7.0\ArduinoSketch4\ArduinoSketch4\ArduinoCore\Debug\libArduinoCore.a(Wire.o)
 .bss._ZN7TwoWire14user_onReceiveE
                0x00000000        0x2 C:\Users\Vitor\Documents\Atmel Studio\7.0\ArduinoSketch4\ArduinoSketch4\ArduinoCore\Debug\libArduinoCore.a(Wire.o)
 .bss._ZN7TwoWire14user_onRequestE
                0x00000000        0x2 C:\Users\Vitor\Documents\Atmel Studio\7.0\ArduinoSketch4\ArduinoSketch4\ArduinoCore\Debug\libArduinoCore.a(Wire.o)
 .text          0x00000000        0x0 C:\Users\Vitor\Documents\Atmel Studio\7.0\ArduinoSketch4\ArduinoSketch4\ArduinoCore\Debug\libArduinoCore.a(abi.o)
 .data          0x00000000        0x0 C:\Users\Vitor\Documents\Atmel Studio\7.0\ArduinoSketch4\ArduinoSketch4\ArduinoCore\Debug\libArduinoCore.a(abi.o)
 .bss           0x00000000        0x0 C:\Users\Vitor\Documents\Atmel Studio\7.0\ArduinoSketch4\ArduinoSketch4\ArduinoCore\Debug\libArduinoCore.a(abi.o)
 .text.__cxa_deleted_virtual
                0x00000000        0x4 C:\Users\Vitor\Documents\Atmel Studio\7.0\ArduinoSketch4\ArduinoSketch4\ArduinoCore\Debug\libArduinoCore.a(abi.o)
 .group         0x00000000        0x8 C:\Users\Vitor\Documents\Atmel Studio\7.0\ArduinoSketch4\ArduinoSketch4\ArduinoCore\Debug\libArduinoCore.a(HardwareSerial1.o)
 .group         0x00000000        0x8 C:\Users\Vitor\Documents\Atmel Studio\7.0\ArduinoSketch4\ArduinoSketch4\ArduinoCore\Debug\libArduinoCore.a(HardwareSerial1.o)
 .text          0x00000000        0x0 C:\Users\Vitor\Documents\Atmel Studio\7.0\ArduinoSketch4\ArduinoSketch4\ArduinoCore\Debug\libArduinoCore.a(HardwareSerial1.o)
 .data          0x00000000        0x0 C:\Users\Vitor\Documents\Atmel Studio\7.0\ArduinoSketch4\ArduinoSketch4\ArduinoCore\Debug\libArduinoCore.a(HardwareSerial1.o)
 .bss           0x00000000        0x0 C:\Users\Vitor\Documents\Atmel Studio\7.0\ArduinoSketch4\ArduinoSketch4\ArduinoCore\Debug\libArduinoCore.a(HardwareSerial1.o)
 .text._ZN5Print17availableForWriteEv
                0x00000000        0x6 C:\Users\Vitor\Documents\Atmel Studio\7.0\ArduinoSketch4\ArduinoSketch4\ArduinoCore\Debug\libArduinoCore.a(HardwareSerial1.o)
 .text._ZN5Print5flushEv
                0x00000000        0x2 C:\Users\Vitor\Documents\Atmel Studio\7.0\ArduinoSketch4\ArduinoSketch4\ArduinoCore\Debug\libArduinoCore.a(HardwareSerial1.o)
 .text          0x00000000        0x0 C:\Users\Vitor\Documents\Atmel Studio\7.0\ArduinoSketch4\ArduinoSketch4\ArduinoCore\Debug\libArduinoCore.a(hooks.o)
 .data          0x00000000        0x0 C:\Users\Vitor\Documents\Atmel Studio\7.0\ArduinoSketch4\ArduinoSketch4\ArduinoCore\Debug\libArduinoCore.a(hooks.o)
 .bss           0x00000000        0x0 C:\Users\Vitor\Documents\Atmel Studio\7.0\ArduinoSketch4\ArduinoSketch4\ArduinoCore\Debug\libArduinoCore.a(hooks.o)
 .text          0x00000000        0x0 C:\Users\Vitor\Documents\Atmel Studio\7.0\ArduinoSketch4\ArduinoSketch4\ArduinoCore\Debug\libArduinoCore.a(wiring_analog.o)
 .data          0x00000000        0x0 C:\Users\Vitor\Documents\Atmel Studio\7.0\ArduinoSketch4\ArduinoSketch4\ArduinoCore\Debug\libArduinoCore.a(wiring_analog.o)
 .bss           0x00000000        0x0 C:\Users\Vitor\Documents\Atmel Studio\7.0\ArduinoSketch4\ArduinoSketch4\ArduinoCore\Debug\libArduinoCore.a(wiring_analog.o)
 .text.analogReference
                0x00000000        0x6 C:\Users\Vitor\Documents\Atmel Studio\7.0\ArduinoSketch4\ArduinoSketch4\ArduinoCore\Debug\libArduinoCore.a(wiring_analog.o)
 .text.analogWrite
                0x00000000      0x192 C:\Users\Vitor\Documents\Atmel Studio\7.0\ArduinoSketch4\ArduinoSketch4\ArduinoCore\Debug\libArduinoCore.a(wiring_analog.o)
 .progmem.gcc_sw_table.analogWrite
                0x00000000       0x24 C:\Users\Vitor\Documents\Atmel Studio\7.0\ArduinoSketch4\ArduinoSketch4\ArduinoCore\Debug\libArduinoCore.a(wiring_analog.o)
 .text          0x00000000        0x0 C:\Users\Vitor\Documents\Atmel Studio\7.0\ArduinoSketch4\ArduinoSketch4\ArduinoCore\Debug\libArduinoCore.a(wiring_digital.o)
 .data          0x00000000        0x0 C:\Users\Vitor\Documents\Atmel Studio\7.0\ArduinoSketch4\ArduinoSketch4\ArduinoCore\Debug\libArduinoCore.a(wiring_digital.o)
 .bss           0x00000000        0x0 C:\Users\Vitor\Documents\Atmel Studio\7.0\ArduinoSketch4\ArduinoSketch4\ArduinoCore\Debug\libArduinoCore.a(wiring_digital.o)
 .text          0x00000000        0x0 C:\Users\Vitor\Documents\Atmel Studio\7.0\ArduinoSketch4\ArduinoSketch4\ArduinoCore\Debug\libArduinoCore.a(WMath.o)
 .data          0x00000000        0x0 C:\Users\Vitor\Documents\Atmel Studio\7.0\ArduinoSketch4\ArduinoSketch4\ArduinoCore\Debug\libArduinoCore.a(WMath.o)
 .bss           0x00000000        0x0 C:\Users\Vitor\Documents\Atmel Studio\7.0\ArduinoSketch4\ArduinoSketch4\ArduinoCore\Debug\libArduinoCore.a(WMath.o)
 .text._Z10randomSeedm
                0x00000000       0x10 C:\Users\Vitor\Documents\Atmel Studio\7.0\ArduinoSketch4\ArduinoSketch4\ArduinoCore\Debug\libArduinoCore.a(WMath.o)
 .text._Z6randoml
                0x00000000       0x34 C:\Users\Vitor\Documents\Atmel Studio\7.0\ArduinoSketch4\ArduinoSketch4\ArduinoCore\Debug\libArduinoCore.a(WMath.o)
 .text._Z6randomll
                0x00000000       0x44 C:\Users\Vitor\Documents\Atmel Studio\7.0\ArduinoSketch4\ArduinoSketch4\ArduinoCore\Debug\libArduinoCore.a(WMath.o)
 .text._Z8makeWordj
                0x00000000        0x2 C:\Users\Vitor\Documents\Atmel Studio\7.0\ArduinoSketch4\ArduinoSketch4\ArduinoCore\Debug\libArduinoCore.a(WMath.o)
 .text._Z8makeWordhh
                0x00000000        0xa C:\Users\Vitor\Documents\Atmel Studio\7.0\ArduinoSketch4\ArduinoSketch4\ArduinoCore\Debug\libArduinoCore.a(WMath.o)
 .group         0x00000000        0x8 C:\Users\Vitor\Documents\Atmel Studio\7.0\ArduinoSketch4\ArduinoSketch4\ArduinoCore\Debug\libArduinoCore.a(Adafruit_GFX.o)
 .group         0x00000000        0x8 C:\Users\Vitor\Documents\Atmel Studio\7.0\ArduinoSketch4\ArduinoSketch4\ArduinoCore\Debug\libArduinoCore.a(Adafruit_GFX.o)
 .group         0x00000000        0x8 C:\Users\Vitor\Documents\Atmel Studio\7.0\ArduinoSketch4\ArduinoSketch4\ArduinoCore\Debug\libArduinoCore.a(Adafruit_GFX.o)
 .group         0x00000000        0x8 C:\Users\Vitor\Documents\Atmel Studio\7.0\ArduinoSketch4\ArduinoSketch4\ArduinoCore\Debug\libArduinoCore.a(Adafruit_GFX.o)
 .group         0x00000000        0x8 C:\Users\Vitor\Documents\Atmel Studio\7.0\ArduinoSketch4\ArduinoSketch4\ArduinoCore\Debug\libArduinoCore.a(Adafruit_GFX.o)
 .group         0x00000000        0x8 C:\Users\Vitor\Documents\Atmel Studio\7.0\ArduinoSketch4\ArduinoSketch4\ArduinoCore\Debug\libArduinoCore.a(Adafruit_GFX.o)
 .text          0x00000000        0x0 C:\Users\Vitor\Documents\Atmel Studio\7.0\ArduinoSketch4\ArduinoSketch4\ArduinoCore\Debug\libArduinoCore.a(Adafruit_GFX.o)
 .data          0x00000000        0x0 C:\Users\Vitor\Documents\Atmel Studio\7.0\ArduinoSketch4\ArduinoSketch4\ArduinoCore\Debug\libArduinoCore.a(Adafruit_GFX.o)
 .bss           0x00000000        0x0 C:\Users\Vitor\Documents\Atmel Studio\7.0\ArduinoSketch4\ArduinoSketch4\ArduinoCore\Debug\libArduinoCore.a(Adafruit_GFX.o)
 .text._ZN5Print17availableForWriteEv
                0x00000000        0x6 C:\Users\Vitor\Documents\Atmel Studio\7.0\ArduinoSketch4\ArduinoSketch4\ArduinoCore\Debug\libArduinoCore.a(Adafruit_GFX.o)
 .text._ZN5Print5flushEv
                0x00000000        0x2 C:\Users\Vitor\Documents\Atmel Studio\7.0\ArduinoSketch4\ArduinoSketch4\ArduinoCore\Debug\libArduinoCore.a(Adafruit_GFX.o)
 .text._ZN10GFXcanvas19drawPixelEiij
                0x00000000       0xe8 C:\Users\Vitor\Documents\Atmel Studio\7.0\ArduinoSketch4\ArduinoSketch4\ArduinoCore\Debug\libArduinoCore.a(Adafruit_GFX.o)
 .text._ZN10GFXcanvas89drawPixelEiij
                0x00000000       0x9e C:\Users\Vitor\Documents\Atmel Studio\7.0\ArduinoSketch4\ArduinoSketch4\ArduinoCore\Debug\libArduinoCore.a(Adafruit_GFX.o)
 .text._ZN11GFXcanvas169drawPixelEiij
                0x00000000       0xc0 C:\Users\Vitor\Documents\Atmel Studio\7.0\ArduinoSketch4\ArduinoSketch4\ArduinoCore\Debug\libArduinoCore.a(Adafruit_GFX.o)
 .text._ZN10GFXcanvas110fillScreenEj
                0x00000000       0x4e C:\Users\Vitor\Documents\Atmel Studio\7.0\ArduinoSketch4\ArduinoSketch4\ArduinoCore\Debug\libArduinoCore.a(Adafruit_GFX.o)
 .text._ZN10GFXcanvas810fillScreenEj
                0x00000000       0x26 C:\Users\Vitor\Documents\Atmel Studio\7.0\ArduinoSketch4\ArduinoSketch4\ArduinoCore\Debug\libArduinoCore.a(Adafruit_GFX.o)
 .text._ZN10GFXcanvas814writeFastHLineEiiij
                0x00000000       0xe8 C:\Users\Vitor\Documents\Atmel Studio\7.0\ArduinoSketch4\ArduinoSketch4\ArduinoCore\Debug\libArduinoCore.a(Adafruit_GFX.o)
 .text._ZN11GFXcanvas1610fillScreenEj
                0x00000000       0x70 C:\Users\Vitor\Documents\Atmel Studio\7.0\ArduinoSketch4\ArduinoSketch4\ArduinoCore\Debug\libArduinoCore.a(Adafruit_GFX.o)
 .text._ZN12Adafruit_GFX10drawCircleEiiij
                0x00000000      0x260 C:\Users\Vitor\Documents\Atmel Studio\7.0\ArduinoSketch4\ArduinoSketch4\ArduinoCore\Debug\libArduinoCore.a(Adafruit_GFX.o)
 .text._ZN12Adafruit_GFX16drawCircleHelperEiiihj
                0x00000000      0x1fa C:\Users\Vitor\Documents\Atmel Studio\7.0\ArduinoSketch4\ArduinoSketch4\ArduinoCore\Debug\libArduinoCore.a(Adafruit_GFX.o)
 .text._ZN12Adafruit_GFX16fillCircleHelperEiiihij
                0x00000000      0x1aa C:\Users\Vitor\Documents\Atmel Studio\7.0\ArduinoSketch4\ArduinoSketch4\ArduinoCore\Debug\libArduinoCore.a(Adafruit_GFX.o)
 .text._ZN12Adafruit_GFX10fillCircleEiiij
                0x00000000       0x8e C:\Users\Vitor\Documents\Atmel Studio\7.0\ArduinoSketch4\ArduinoSketch4\ArduinoCore\Debug\libArduinoCore.a(Adafruit_GFX.o)
 .text._ZN12Adafruit_GFX13drawRoundRectEiiiiij
                0x00000000      0x19a C:\Users\Vitor\Documents\Atmel Studio\7.0\ArduinoSketch4\ArduinoSketch4\ArduinoCore\Debug\libArduinoCore.a(Adafruit_GFX.o)
 .text._ZN12Adafruit_GFX13fillRoundRectEiiiiij
                0x00000000      0x106 C:\Users\Vitor\Documents\Atmel Studio\7.0\ArduinoSketch4\ArduinoSketch4\ArduinoCore\Debug\libArduinoCore.a(Adafruit_GFX.o)
 .text._ZN12Adafruit_GFX12drawTriangleEiiiiiij
                0x00000000       0xb6 C:\Users\Vitor\Documents\Atmel Studio\7.0\ArduinoSketch4\ArduinoSketch4\ArduinoCore\Debug\libArduinoCore.a(Adafruit_GFX.o)
 .text._ZN12Adafruit_GFX12fillTriangleEiiiiiij
                0x00000000      0x3fe C:\Users\Vitor\Documents\Atmel Studio\7.0\ArduinoSketch4\ArduinoSketch4\ArduinoCore\Debug\libArduinoCore.a(Adafruit_GFX.o)
 .text._ZN12Adafruit_GFX10drawBitmapEiiPKhiijj
                0x00000000      0x144 C:\Users\Vitor\Documents\Atmel Studio\7.0\ArduinoSketch4\ArduinoSketch4\ArduinoCore\Debug\libArduinoCore.a(Adafruit_GFX.o)
 .text._ZN12Adafruit_GFX10drawBitmapEiiPhiij
                0x00000000      0x146 C:\Users\Vitor\Documents\Atmel Studio\7.0\ArduinoSketch4\ArduinoSketch4\ArduinoCore\Debug\libArduinoCore.a(Adafruit_GFX.o)
 .text._ZN12Adafruit_GFX10drawBitmapEiiPhiijj
                0x00000000      0x14c C:\Users\Vitor\Documents\Atmel Studio\7.0\ArduinoSketch4\ArduinoSketch4\ArduinoCore\Debug\libArduinoCore.a(Adafruit_GFX.o)
 .text._ZN12Adafruit_GFX11drawXBitmapEiiPKhiij
                0x00000000      0x13c C:\Users\Vitor\Documents\Atmel Studio\7.0\ArduinoSketch4\ArduinoSketch4\ArduinoCore\Debug\libArduinoCore.a(Adafruit_GFX.o)
 .text._ZN12Adafruit_GFX19drawGrayscaleBitmapEiiPKhii
                0x00000000       0xe6 C:\Users\Vitor\Documents\Atmel Studio\7.0\ArduinoSketch4\ArduinoSketch4\ArduinoCore\Debug\libArduinoCore.a(Adafruit_GFX.o)
 .text._ZN12Adafruit_GFX19drawGrayscaleBitmapEiiPhii
                0x00000000       0xe2 C:\Users\Vitor\Documents\Atmel Studio\7.0\ArduinoSketch4\ArduinoSketch4\ArduinoCore\Debug\libArduinoCore.a(Adafruit_GFX.o)
 .text._ZN12Adafruit_GFX19drawGrayscaleBitmapEiiPKhS1_ii
                0x00000000      0x158 C:\Users\Vitor\Documents\Atmel Studio\7.0\ArduinoSketch4\ArduinoSketch4\ArduinoCore\Debug\libArduinoCore.a(Adafruit_GFX.o)
 .text._ZN12Adafruit_GFX19drawGrayscaleBitmapEiiPhS0_ii
                0x00000000      0x168 C:\Users\Vitor\Documents\Atmel Studio\7.0\ArduinoSketch4\ArduinoSketch4\ArduinoCore\Debug\libArduinoCore.a(Adafruit_GFX.o)
 .text._ZN12Adafruit_GFX13drawRGBBitmapEiiPKjii
                0x00000000       0xea C:\Users\Vitor\Documents\Atmel Studio\7.0\ArduinoSketch4\ArduinoSketch4\ArduinoCore\Debug\libArduinoCore.a(Adafruit_GFX.o)
 .text._ZN12Adafruit_GFX13drawRGBBitmapEiiPjii
                0x00000000       0xf4 C:\Users\Vitor\Documents\Atmel Studio\7.0\ArduinoSketch4\ArduinoSketch4\ArduinoCore\Debug\libArduinoCore.a(Adafruit_GFX.o)
 .text._ZN12Adafruit_GFX13drawRGBBitmapEiiPKjPKhii
                0x00000000      0x15e C:\Users\Vitor\Documents\Atmel Studio\7.0\ArduinoSketch4\ArduinoSketch4\ArduinoCore\Debug\libArduinoCore.a(Adafruit_GFX.o)
 .text._ZN12Adafruit_GFX13drawRGBBitmapEiiPjPhii
                0x00000000      0x166 C:\Users\Vitor\Documents\Atmel Studio\7.0\ArduinoSketch4\ArduinoSketch4\ArduinoCore\Debug\libArduinoCore.a(Adafruit_GFX.o)
 .text._ZNK12Adafruit_GFX10getCursorXEv
                0x00000000        0x8 C:\Users\Vitor\Documents\Atmel Studio\7.0\ArduinoSketch4\ArduinoSketch4\ArduinoCore\Debug\libArduinoCore.a(Adafruit_GFX.o)
 .text._ZNK12Adafruit_GFX10getCursorYEv
                0x00000000        0x8 C:\Users\Vitor\Documents\Atmel Studio\7.0\ArduinoSketch4\ArduinoSketch4\ArduinoCore\Debug\libArduinoCore.a(Adafruit_GFX.o)
 .text._ZN12Adafruit_GFX11setTextWrapEb
                0x00000000        0x6 C:\Users\Vitor\Documents\Atmel Studio\7.0\ArduinoSketch4\ArduinoSketch4\ArduinoCore\Debug\libArduinoCore.a(Adafruit_GFX.o)
 .text._ZN12Adafruit_GFX5cp437Eb
                0x00000000        0x6 C:\Users\Vitor\Documents\Atmel Studio\7.0\ArduinoSketch4\ArduinoSketch4\ArduinoCore\Debug\libArduinoCore.a(Adafruit_GFX.o)
 .text._ZN12Adafruit_GFX7setFontEPK7GFXfont
                0x00000000       0x2c C:\Users\Vitor\Documents\Atmel Studio\7.0\ArduinoSketch4\ArduinoSketch4\ArduinoCore\Debug\libArduinoCore.a(Adafruit_GFX.o)
 .text._ZN12Adafruit_GFX10charBoundsEcPiS0_S0_S0_S0_S0_
                0x00000000      0x2c0 C:\Users\Vitor\Documents\Atmel Studio\7.0\ArduinoSketch4\ArduinoSketch4\ArduinoCore\Debug\libArduinoCore.a(Adafruit_GFX.o)
 .text._ZN12Adafruit_GFX13getTextBoundsEPKciiPiS2_PjS3_
                0x00000000      0x130 C:\Users\Vitor\Documents\Atmel Studio\7.0\ArduinoSketch4\ArduinoSketch4\ArduinoCore\Debug\libArduinoCore.a(Adafruit_GFX.o)
 .text._ZN12Adafruit_GFX13getTextBoundsERK6StringiiPiS3_PjS4_
                0x00000000       0x3a C:\Users\Vitor\Documents\Atmel Studio\7.0\ArduinoSketch4\ArduinoSketch4\ArduinoCore\Debug\libArduinoCore.a(Adafruit_GFX.o)
 .text._ZN12Adafruit_GFX13getTextBoundsEPK19__FlashStringHelperiiPiS3_PjS4_
                0x00000000      0x134 C:\Users\Vitor\Documents\Atmel Studio\7.0\ArduinoSketch4\ArduinoSketch4\ArduinoCore\Debug\libArduinoCore.a(Adafruit_GFX.o)
 .text._ZN19Adafruit_GFX_ButtonC2Ev
                0x00000000        0x8 C:\Users\Vitor\Documents\Atmel Studio\7.0\ArduinoSketch4\ArduinoSketch4\ArduinoCore\Debug\libArduinoCore.a(Adafruit_GFX.o)
 .text._ZN19Adafruit_GFX_Button10initButtonEP12Adafruit_GFXiijjjjjPch
                0x00000000       0x84 C:\Users\Vitor\Documents\Atmel Studio\7.0\ArduinoSketch4\ArduinoSketch4\ArduinoCore\Debug\libArduinoCore.a(Adafruit_GFX.o)
 .text._ZN19Adafruit_GFX_Button12initButtonULEP12Adafruit_GFXiijjjjjPch
                0x00000000       0x6c C:\Users\Vitor\Documents\Atmel Studio\7.0\ArduinoSketch4\ArduinoSketch4\ArduinoCore\Debug\libArduinoCore.a(Adafruit_GFX.o)
 .text._ZN19Adafruit_GFX_Button10drawButtonEb
                0x00000000      0x120 C:\Users\Vitor\Documents\Atmel Studio\7.0\ArduinoSketch4\ArduinoSketch4\ArduinoCore\Debug\libArduinoCore.a(Adafruit_GFX.o)
 .text._ZN19Adafruit_GFX_Button8containsEii
                0x00000000       0x38 C:\Users\Vitor\Documents\Atmel Studio\7.0\ArduinoSketch4\ArduinoSketch4\ArduinoCore\Debug\libArduinoCore.a(Adafruit_GFX.o)
 .text._ZN19Adafruit_GFX_Button5pressEb
                0x00000000        0xa C:\Users\Vitor\Documents\Atmel Studio\7.0\ArduinoSketch4\ArduinoSketch4\ArduinoCore\Debug\libArduinoCore.a(Adafruit_GFX.o)
 .text._ZN19Adafruit_GFX_Button9isPressedEv
                0x00000000        0x6 C:\Users\Vitor\Documents\Atmel Studio\7.0\ArduinoSketch4\ArduinoSketch4\ArduinoCore\Debug\libArduinoCore.a(Adafruit_GFX.o)
 .text._ZN19Adafruit_GFX_Button11justPressedEv
                0x00000000       0x10 C:\Users\Vitor\Documents\Atmel Studio\7.0\ArduinoSketch4\ArduinoSketch4\ArduinoCore\Debug\libArduinoCore.a(Adafruit_GFX.o)
 .text._ZN19Adafruit_GFX_Button12justReleasedEv
                0x00000000       0x10 C:\Users\Vitor\Documents\Atmel Studio\7.0\ArduinoSketch4\ArduinoSketch4\ArduinoCore\Debug\libArduinoCore.a(Adafruit_GFX.o)
 .text._ZN10GFXcanvas1C2Ejj
                0x00000000       0x7a C:\Users\Vitor\Documents\Atmel Studio\7.0\ArduinoSketch4\ArduinoSketch4\ArduinoCore\Debug\libArduinoCore.a(Adafruit_GFX.o)
 .text._ZN10GFXcanvas1D2Ev
                0x00000000       0x18 C:\Users\Vitor\Documents\Atmel Studio\7.0\ArduinoSketch4\ArduinoSketch4\ArduinoCore\Debug\libArduinoCore.a(Adafruit_GFX.o)
 .text._ZN10GFXcanvas19getBufferEv
                0x00000000        0x8 C:\Users\Vitor\Documents\Atmel Studio\7.0\ArduinoSketch4\ArduinoSketch4\ArduinoCore\Debug\libArduinoCore.a(Adafruit_GFX.o)
 .text._ZN10GFXcanvas8C2Ejj
                0x00000000       0x6a C:\Users\Vitor\Documents\Atmel Studio\7.0\ArduinoSketch4\ArduinoSketch4\ArduinoCore\Debug\libArduinoCore.a(Adafruit_GFX.o)
 .text._ZN10GFXcanvas8D2Ev
                0x00000000       0x18 C:\Users\Vitor\Documents\Atmel Studio\7.0\ArduinoSketch4\ArduinoSketch4\ArduinoCore\Debug\libArduinoCore.a(Adafruit_GFX.o)
 .text._ZN10GFXcanvas89getBufferEv
                0x00000000        0x8 C:\Users\Vitor\Documents\Atmel Studio\7.0\ArduinoSketch4\ArduinoSketch4\ArduinoCore\Debug\libArduinoCore.a(Adafruit_GFX.o)
 .text._ZN11GFXcanvas16C2Ejj
                0x00000000       0x72 C:\Users\Vitor\Documents\Atmel Studio\7.0\ArduinoSketch4\ArduinoSketch4\ArduinoCore\Debug\libArduinoCore.a(Adafruit_GFX.o)
 .text._ZN11GFXcanvas16D2Ev
                0x00000000       0x18 C:\Users\Vitor\Documents\Atmel Studio\7.0\ArduinoSketch4\ArduinoSketch4\ArduinoCore\Debug\libArduinoCore.a(Adafruit_GFX.o)
 .text._ZN11GFXcanvas169getBufferEv
                0x00000000        0x8 C:\Users\Vitor\Documents\Atmel Studio\7.0\ArduinoSketch4\ArduinoSketch4\ArduinoCore\Debug\libArduinoCore.a(Adafruit_GFX.o)
 .progmem.data._ZZN10GFXcanvas19drawPixelEiijE9GFXclrBit
                0x00000000        0x8 C:\Users\Vitor\Documents\Atmel Studio\7.0\ArduinoSketch4\ArduinoSketch4\ArduinoCore\Debug\libArduinoCore.a(Adafruit_GFX.o)
 .progmem.data._ZZN10GFXcanvas19drawPixelEiijE9GFXsetBit
                0x00000000        0x8 C:\Users\Vitor\Documents\Atmel Studio\7.0\ArduinoSketch4\ArduinoSketch4\ArduinoCore\Debug\libArduinoCore.a(Adafruit_GFX.o)
 .rodata._ZTV10GFXcanvas1
                0x00000000       0x2c C:\Users\Vitor\Documents\Atmel Studio\7.0\ArduinoSketch4\ArduinoSketch4\ArduinoCore\Debug\libArduinoCore.a(Adafruit_GFX.o)
 .rodata._ZTV10GFXcanvas8
                0x00000000       0x2c C:\Users\Vitor\Documents\Atmel Studio\7.0\ArduinoSketch4\ArduinoSketch4\ArduinoCore\Debug\libArduinoCore.a(Adafruit_GFX.o)
 .rodata._ZTV11GFXcanvas16
                0x00000000       0x2c C:\Users\Vitor\Documents\Atmel Studio\7.0\ArduinoSketch4\ArduinoSketch4\ArduinoCore\Debug\libArduinoCore.a(Adafruit_GFX.o)
 .text          0x00000000        0x0 C:\Users\Vitor\Documents\Atmel Studio\7.0\ArduinoSketch4\ArduinoSketch4\ArduinoCore\Debug\libArduinoCore.a(AD5933.o)
 .data          0x00000000        0x0 C:\Users\Vitor\Documents\Atmel Studio\7.0\ArduinoSketch4\ArduinoSketch4\ArduinoCore\Debug\libArduinoCore.a(AD5933.o)
 .bss           0x00000000        0x0 C:\Users\Vitor\Documents\Atmel Studio\7.0\ArduinoSketch4\ArduinoSketch4\ArduinoCore\Debug\libArduinoCore.a(AD5933.o)
 .text._ZN6AD593317enableTemperatureEh
                0x00000000        0xa C:\Users\Vitor\Documents\Atmel Studio\7.0\ArduinoSketch4\ArduinoSketch4\ArduinoCore\Debug\libArduinoCore.a(AD5933.o)
 .text._ZN6AD593319readControlRegisterEv
                0x00000000       0x22 C:\Users\Vitor\Documents\Atmel Studio\7.0\ArduinoSketch4\ArduinoSketch4\ArduinoCore\Debug\libArduinoCore.a(AD5933.o)
 .text._ZN6AD59339calibrateEPfPdPiS2_ii
                0x00000000      0x144 C:\Users\Vitor\Documents\Atmel Studio\7.0\ArduinoSketch4\ArduinoSketch4\ArduinoCore\Debug\libArduinoCore.a(AD5933.o)
 .group         0x00000000        0x8 C:\Users\Vitor\Documents\Atmel Studio\7.0\ArduinoSketch4\ArduinoSketch4\ArduinoCore\Debug\libArduinoCore.a(DS3231.o)
 .text          0x00000000        0x0 C:\Users\Vitor\Documents\Atmel Studio\7.0\ArduinoSketch4\ArduinoSketch4\ArduinoCore\Debug\libArduinoCore.a(DS3231.o)
 .data          0x00000000        0x0 C:\Users\Vitor\Documents\Atmel Studio\7.0\ArduinoSketch4\ArduinoSketch4\ArduinoCore\Debug\libArduinoCore.a(DS3231.o)
 .bss           0x00000000        0x0 C:\Users\Vitor\Documents\Atmel Studio\7.0\ArduinoSketch4\ArduinoSketch4\ArduinoCore\Debug\libArduinoCore.a(DS3231.o)
 .text._ZN8DateTimeC2Em
                0x00000000       0xf0 C:\Users\Vitor\Documents\Atmel Studio\7.0\ArduinoSketch4\ArduinoSketch4\ArduinoCore\Debug\libArduinoCore.a(DS3231.o)
 .text._ZN8DateTimeC2Ejhhhhh
                0x00000000       0x28 C:\Users\Vitor\Documents\Atmel Studio\7.0\ArduinoSketch4\ArduinoSketch4\ArduinoCore\Debug\libArduinoCore.a(DS3231.o)
 .text._ZNK8DateTime8unixtimeEv
                0x00000000       0xc4 C:\Users\Vitor\Documents\Atmel Studio\7.0\ArduinoSketch4\ArduinoSketch4\ArduinoCore\Debug\libArduinoCore.a(DS3231.o)
 .text._ZN6DS32318decToBcdEh
                0x00000000       0x14 C:\Users\Vitor\Documents\Atmel Studio\7.0\ArduinoSketch4\ArduinoSketch4\ArduinoCore\Debug\libArduinoCore.a(DS3231.o)
 .text._ZN6DS32318bcdToDecEh
                0x00000000       0x14 C:\Users\Vitor\Documents\Atmel Studio\7.0\ArduinoSketch4\ArduinoSketch4\ArduinoCore\Debug\libArduinoCore.a(DS3231.o)
 .text._ZN6RTClib3nowEv
                0x00000000      0x12e C:\Users\Vitor\Documents\Atmel Studio\7.0\ArduinoSketch4\ArduinoSketch4\ArduinoCore\Debug\libArduinoCore.a(DS3231.o)
 .text._ZN6DS32316getDoWEv
                0x00000000       0x4a C:\Users\Vitor\Documents\Atmel Studio\7.0\ArduinoSketch4\ArduinoSketch4\ArduinoCore\Debug\libArduinoCore.a(DS3231.o)
 .text._ZN6DS32319getA1TimeERhS0_S0_S0_S0_RbS1_S1_
                0x00000000      0x1aa C:\Users\Vitor\Documents\Atmel Studio\7.0\ArduinoSketch4\ArduinoSketch4\ArduinoCore\Debug\libArduinoCore.a(DS3231.o)
 .text._ZN6DS32319getA2TimeERhS0_S0_S0_RbS1_S1_
                0x00000000      0x15c C:\Users\Vitor\Documents\Atmel Studio\7.0\ArduinoSketch4\ArduinoSketch4\ArduinoCore\Debug\libArduinoCore.a(DS3231.o)
 .text._ZN6DS323117checkAlarmEnabledEh
                0x00000000       0x22 C:\Users\Vitor\Documents\Atmel Studio\7.0\ArduinoSketch4\ArduinoSketch4\ArduinoCore\Debug\libArduinoCore.a(DS3231.o)
 .text._ZN6DS323115oscillatorCheckEv
                0x00000000       0x10 C:\Users\Vitor\Documents\Atmel Studio\7.0\ArduinoSketch4\ArduinoSketch4\ArduinoCore\Debug\libArduinoCore.a(DS3231.o)
 .text._ZN6DS32316setDoWEh
                0x00000000       0x40 C:\Users\Vitor\Documents\Atmel Studio\7.0\ArduinoSketch4\ArduinoSketch4\ArduinoCore\Debug\libArduinoCore.a(DS3231.o)
 .text._ZN6DS323112setClockModeEb
                0x00000000       0x76 C:\Users\Vitor\Documents\Atmel Studio\7.0\ArduinoSketch4\ArduinoSketch4\ArduinoCore\Debug\libArduinoCore.a(DS3231.o)
 .text._ZN6DS32319setA1TimeEhhhhhbbb
                0x00000000      0x130 C:\Users\Vitor\Documents\Atmel Studio\7.0\ArduinoSketch4\ArduinoSketch4\ArduinoCore\Debug\libArduinoCore.a(DS3231.o)
 .text._ZN6DS32319setA2TimeEhhhhbbb
                0x00000000       0xf0 C:\Users\Vitor\Documents\Atmel Studio\7.0\ArduinoSketch4\ArduinoSketch4\ArduinoCore\Debug\libArduinoCore.a(DS3231.o)
 .text._ZN6DS323111turnOnAlarmEh
                0x00000000       0x2a C:\Users\Vitor\Documents\Atmel Studio\7.0\ArduinoSketch4\ArduinoSketch4\ArduinoCore\Debug\libArduinoCore.a(DS3231.o)
 .text._ZN6DS323112turnOffAlarmEh
                0x00000000       0x2a C:\Users\Vitor\Documents\Atmel Studio\7.0\ArduinoSketch4\ArduinoSketch4\ArduinoCore\Debug\libArduinoCore.a(DS3231.o)
 .text._ZN6DS323112checkIfAlarmEh
                0x00000000       0x3e C:\Users\Vitor\Documents\Atmel Studio\7.0\ArduinoSketch4\ArduinoSketch4\ArduinoCore\Debug\libArduinoCore.a(DS3231.o)
 .text._ZN6DS323116enableOscillatorEbbh
                0x00000000       0x52 C:\Users\Vitor\Documents\Atmel Studio\7.0\ArduinoSketch4\ArduinoSketch4\ArduinoCore\Debug\libArduinoCore.a(DS3231.o)
 .text._ZN6DS323111enable32kHzEb
                0x00000000       0x2a C:\Users\Vitor\Documents\Atmel Studio\7.0\ArduinoSketch4\ArduinoSketch4\ArduinoCore\Debug\libArduinoCore.a(DS3231.o)
 .text._ZN6DS323114getTemperatureEv
                0x00000000       0x92 C:\Users\Vitor\Documents\Atmel Studio\7.0\ArduinoSketch4\ArduinoSketch4\ArduinoCore\Debug\libArduinoCore.a(DS3231.o)
 .progmem.data._ZL11daysInMonth
                0x00000000        0xc C:\Users\Vitor\Documents\Atmel Studio\7.0\ArduinoSketch4\ArduinoSketch4\ArduinoCore\Debug\libArduinoCore.a(DS3231.o)
 .text          0x00000000        0x0 C:\Users\Vitor\Documents\Atmel Studio\7.0\ArduinoSketch4\ArduinoSketch4\ArduinoCore\Debug\libArduinoCore.a(twi.o)
 .data          0x00000000        0x0 C:\Users\Vitor\Documents\Atmel Studio\7.0\ArduinoSketch4\ArduinoSketch4\ArduinoCore\Debug\libArduinoCore.a(twi.o)
 .bss           0x00000000        0x0 C:\Users\Vitor\Documents\Atmel Studio\7.0\ArduinoSketch4\ArduinoSketch4\ArduinoCore\Debug\libArduinoCore.a(twi.o)
 .text.twi_disable
                0x00000000       0x1a C:\Users\Vitor\Documents\Atmel Studio\7.0\ArduinoSketch4\ArduinoSketch4\ArduinoCore\Debug\libArduinoCore.a(twi.o)
 .text.twi_setAddress
                0x00000000        0x8 C:\Users\Vitor\Documents\Atmel Studio\7.0\ArduinoSketch4\ArduinoSketch4\ArduinoCore\Debug\libArduinoCore.a(twi.o)
 .text.twi_attachSlaveRxEvent
                0x00000000        0xa C:\Users\Vitor\Documents\Atmel Studio\7.0\ArduinoSketch4\ArduinoSketch4\ArduinoCore\Debug\libArduinoCore.a(twi.o)
 .text.twi_attachSlaveTxEvent
                0x00000000        0xa C:\Users\Vitor\Documents\Atmel Studio\7.0\ArduinoSketch4\ArduinoSketch4\ArduinoCore\Debug\libArduinoCore.a(twi.o)
 .text.twi_reply
                0x00000000       0x10 C:\Users\Vitor\Documents\Atmel Studio\7.0\ArduinoSketch4\ArduinoSketch4\ArduinoCore\Debug\libArduinoCore.a(twi.o)
 .text          0x00000000        0x0 c:/program files (x86)/atmel/studio/7.0/toolchain/avr8/avr8-gnu-toolchain/bin/../lib/gcc/avr/5.4.0/../../../../avr/lib/avr6\libm.a(addsf3.o)
 .data          0x00000000        0x0 c:/program files (x86)/atmel/studio/7.0/toolchain/avr8/avr8-gnu-toolchain/bin/../lib/gcc/avr/5.4.0/../../../../avr/lib/avr6\libm.a(addsf3.o)
 .bss           0x00000000        0x0 c:/program files (x86)/atmel/studio/7.0/toolchain/avr8/avr8-gnu-toolchain/bin/../lib/gcc/avr/5.4.0/../../../../avr/lib/avr6\libm.a(addsf3.o)
 .text          0x00000000        0x0 c:/program files (x86)/atmel/studio/7.0/toolchain/avr8/avr8-gnu-toolchain/bin/../lib/gcc/avr/5.4.0/../../../../avr/lib/avr6\libm.a(addsf3x.o)
 .data          0x00000000        0x0 c:/program files (x86)/atmel/studio/7.0/toolchain/avr8/avr8-gnu-toolchain/bin/../lib/gcc/avr/5.4.0/../../../../avr/lib/avr6\libm.a(addsf3x.o)
 .bss           0x00000000        0x0 c:/program files (x86)/atmel/studio/7.0/toolchain/avr8/avr8-gnu-toolchain/bin/../lib/gcc/avr/5.4.0/../../../../avr/lib/avr6\libm.a(addsf3x.o)
 .text          0x00000000        0x0 c:/program files (x86)/atmel/studio/7.0/toolchain/avr8/avr8-gnu-toolchain/bin/../lib/gcc/avr/5.4.0/../../../../avr/lib/avr6\libm.a(atan2.o)
 .data          0x00000000        0x0 c:/program files (x86)/atmel/studio/7.0/toolchain/avr8/avr8-gnu-toolchain/bin/../lib/gcc/avr/5.4.0/../../../../avr/lib/avr6\libm.a(atan2.o)
 .bss           0x00000000        0x0 c:/program files (x86)/atmel/studio/7.0/toolchain/avr8/avr8-gnu-toolchain/bin/../lib/gcc/avr/5.4.0/../../../../avr/lib/avr6\libm.a(atan2.o)
 .text          0x00000000        0x0 c:/program files (x86)/atmel/studio/7.0/toolchain/avr8/avr8-gnu-toolchain/bin/../lib/gcc/avr/5.4.0/../../../../avr/lib/avr6\libm.a(atan.o)
 .data          0x00000000        0x0 c:/program files (x86)/atmel/studio/7.0/toolchain/avr8/avr8-gnu-toolchain/bin/../lib/gcc/avr/5.4.0/../../../../avr/lib/avr6\libm.a(atan.o)
 .bss           0x00000000        0x0 c:/program files (x86)/atmel/studio/7.0/toolchain/avr8/avr8-gnu-toolchain/bin/../lib/gcc/avr/5.4.0/../../../../avr/lib/avr6\libm.a(atan.o)
 .text          0x00000000        0x0 c:/program files (x86)/atmel/studio/7.0/toolchain/avr8/avr8-gnu-toolchain/bin/../lib/gcc/avr/5.4.0/../../../../avr/lib/avr6\libm.a(cmpsf2.o)
 .data          0x00000000        0x0 c:/program files (x86)/atmel/studio/7.0/toolchain/avr8/avr8-gnu-toolchain/bin/../lib/gcc/avr/5.4.0/../../../../avr/lib/avr6\libm.a(cmpsf2.o)
 .bss           0x00000000        0x0 c:/program files (x86)/atmel/studio/7.0/toolchain/avr8/avr8-gnu-toolchain/bin/../lib/gcc/avr/5.4.0/../../../../avr/lib/avr6\libm.a(cmpsf2.o)
 .text          0x00000000        0x0 c:/program files (x86)/atmel/studio/7.0/toolchain/avr8/avr8-gnu-toolchain/bin/../lib/gcc/avr/5.4.0/../../../../avr/lib/avr6\libm.a(cos.o)
 .data          0x00000000        0x0 c:/program files (x86)/atmel/studio/7.0/toolchain/avr8/avr8-gnu-toolchain/bin/../lib/gcc/avr/5.4.0/../../../../avr/lib/avr6\libm.a(cos.o)
 .bss           0x00000000        0x0 c:/program files (x86)/atmel/studio/7.0/toolchain/avr8/avr8-gnu-toolchain/bin/../lib/gcc/avr/5.4.0/../../../../avr/lib/avr6\libm.a(cos.o)
 .text          0x00000000        0x0 c:/program files (x86)/atmel/studio/7.0/toolchain/avr8/avr8-gnu-toolchain/bin/../lib/gcc/avr/5.4.0/../../../../avr/lib/avr6\libm.a(divsf3.o)
 .data          0x00000000        0x0 c:/program files (x86)/atmel/studio/7.0/toolchain/avr8/avr8-gnu-toolchain/bin/../lib/gcc/avr/5.4.0/../../../../avr/lib/avr6\libm.a(divsf3.o)
 .bss           0x00000000        0x0 c:/program files (x86)/atmel/studio/7.0/toolchain/avr8/avr8-gnu-toolchain/bin/../lib/gcc/avr/5.4.0/../../../../avr/lib/avr6\libm.a(divsf3.o)
 .text          0x00000000        0x0 c:/program files (x86)/atmel/studio/7.0/toolchain/avr8/avr8-gnu-toolchain/bin/../lib/gcc/avr/5.4.0/../../../../avr/lib/avr6\libm.a(divsf3x.o)
 .data          0x00000000        0x0 c:/program files (x86)/atmel/studio/7.0/toolchain/avr8/avr8-gnu-toolchain/bin/../lib/gcc/avr/5.4.0/../../../../avr/lib/avr6\libm.a(divsf3x.o)
 .bss           0x00000000        0x0 c:/program files (x86)/atmel/studio/7.0/toolchain/avr8/avr8-gnu-toolchain/bin/../lib/gcc/avr/5.4.0/../../../../avr/lib/avr6\libm.a(divsf3x.o)
 .text          0x00000000        0x0 c:/program files (x86)/atmel/studio/7.0/toolchain/avr8/avr8-gnu-toolchain/bin/../lib/gcc/avr/5.4.0/../../../../avr/lib/avr6\libm.a(fixsfsi.o)
 .data          0x00000000        0x0 c:/program files (x86)/atmel/studio/7.0/toolchain/avr8/avr8-gnu-toolchain/bin/../lib/gcc/avr/5.4.0/../../../../avr/lib/avr6\libm.a(fixsfsi.o)
 .bss           0x00000000        0x0 c:/program files (x86)/atmel/studio/7.0/toolchain/avr8/avr8-gnu-toolchain/bin/../lib/gcc/avr/5.4.0/../../../../avr/lib/avr6\libm.a(fixsfsi.o)
 .text          0x00000000        0x0 c:/program files (x86)/atmel/studio/7.0/toolchain/avr8/avr8-gnu-toolchain/bin/../lib/gcc/avr/5.4.0/../../../../avr/lib/avr6\libm.a(fixunssfsi.o)
 .data          0x00000000        0x0 c:/program files (x86)/atmel/studio/7.0/toolchain/avr8/avr8-gnu-toolchain/bin/../lib/gcc/avr/5.4.0/../../../../avr/lib/avr6\libm.a(fixunssfsi.o)
 .bss           0x00000000        0x0 c:/program files (x86)/atmel/studio/7.0/toolchain/avr8/avr8-gnu-toolchain/bin/../lib/gcc/avr/5.4.0/../../../../avr/lib/avr6\libm.a(fixunssfsi.o)
 .text          0x00000000        0x0 c:/program files (x86)/atmel/studio/7.0/toolchain/avr8/avr8-gnu-toolchain/bin/../lib/gcc/avr/5.4.0/../../../../avr/lib/avr6\libm.a(floatsisf.o)
 .data          0x00000000        0x0 c:/program files (x86)/atmel/studio/7.0/toolchain/avr8/avr8-gnu-toolchain/bin/../lib/gcc/avr/5.4.0/../../../../avr/lib/avr6\libm.a(floatsisf.o)
 .bss           0x00000000        0x0 c:/program files (x86)/atmel/studio/7.0/toolchain/avr8/avr8-gnu-toolchain/bin/../lib/gcc/avr/5.4.0/../../../../avr/lib/avr6\libm.a(floatsisf.o)
 .text          0x00000000        0x0 c:/program files (x86)/atmel/studio/7.0/toolchain/avr8/avr8-gnu-toolchain/bin/../lib/gcc/avr/5.4.0/../../../../avr/lib/avr6\libm.a(fp_cmp.o)
 .data          0x00000000        0x0 c:/program files (x86)/atmel/studio/7.0/toolchain/avr8/avr8-gnu-toolchain/bin/../lib/gcc/avr/5.4.0/../../../../avr/lib/avr6\libm.a(fp_cmp.o)
 .bss           0x00000000        0x0 c:/program files (x86)/atmel/studio/7.0/toolchain/avr8/avr8-gnu-toolchain/bin/../lib/gcc/avr/5.4.0/../../../../avr/lib/avr6\libm.a(fp_cmp.o)
 .text          0x00000000        0x0 c:/program files (x86)/atmel/studio/7.0/toolchain/avr8/avr8-gnu-toolchain/bin/../lib/gcc/avr/5.4.0/../../../../avr/lib/avr6\libm.a(fp_inf.o)
 .data          0x00000000        0x0 c:/program files (x86)/atmel/studio/7.0/toolchain/avr8/avr8-gnu-toolchain/bin/../lib/gcc/avr/5.4.0/../../../../avr/lib/avr6\libm.a(fp_inf.o)
 .bss           0x00000000        0x0 c:/program files (x86)/atmel/studio/7.0/toolchain/avr8/avr8-gnu-toolchain/bin/../lib/gcc/avr/5.4.0/../../../../avr/lib/avr6\libm.a(fp_inf.o)
 .text          0x00000000        0x0 c:/program files (x86)/atmel/studio/7.0/toolchain/avr8/avr8-gnu-toolchain/bin/../lib/gcc/avr/5.4.0/../../../../avr/lib/avr6\libm.a(fp_nan.o)
 .data          0x00000000        0x0 c:/program files (x86)/atmel/studio/7.0/toolchain/avr8/avr8-gnu-toolchain/bin/../lib/gcc/avr/5.4.0/../../../../avr/lib/avr6\libm.a(fp_nan.o)
 .bss           0x00000000        0x0 c:/program files (x86)/atmel/studio/7.0/toolchain/avr8/avr8-gnu-toolchain/bin/../lib/gcc/avr/5.4.0/../../../../avr/lib/avr6\libm.a(fp_nan.o)
 .text          0x00000000        0x0 c:/program files (x86)/atmel/studio/7.0/toolchain/avr8/avr8-gnu-toolchain/bin/../lib/gcc/avr/5.4.0/../../../../avr/lib/avr6\libm.a(fp_powser.o)
 .data          0x00000000        0x0 c:/program files (x86)/atmel/studio/7.0/toolchain/avr8/avr8-gnu-toolchain/bin/../lib/gcc/avr/5.4.0/../../../../avr/lib/avr6\libm.a(fp_powser.o)
 .bss           0x00000000        0x0 c:/program files (x86)/atmel/studio/7.0/toolchain/avr8/avr8-gnu-toolchain/bin/../lib/gcc/avr/5.4.0/../../../../avr/lib/avr6\libm.a(fp_powser.o)
 .text          0x00000000        0x0 c:/program files (x86)/atmel/studio/7.0/toolchain/avr8/avr8-gnu-toolchain/bin/../lib/gcc/avr/5.4.0/../../../../avr/lib/avr6\libm.a(fp_pscA.o)
 .data          0x00000000        0x0 c:/program files (x86)/atmel/studio/7.0/toolchain/avr8/avr8-gnu-toolchain/bin/../lib/gcc/avr/5.4.0/../../../../avr/lib/avr6\libm.a(fp_pscA.o)
 .bss           0x00000000        0x0 c:/program files (x86)/atmel/studio/7.0/toolchain/avr8/avr8-gnu-toolchain/bin/../lib/gcc/avr/5.4.0/../../../../avr/lib/avr6\libm.a(fp_pscA.o)
 .text          0x00000000        0x0 c:/program files (x86)/atmel/studio/7.0/toolchain/avr8/avr8-gnu-toolchain/bin/../lib/gcc/avr/5.4.0/../../../../avr/lib/avr6\libm.a(fp_pscB.o)
 .data          0x00000000        0x0 c:/program files (x86)/atmel/studio/7.0/toolchain/avr8/avr8-gnu-toolchain/bin/../lib/gcc/avr/5.4.0/../../../../avr/lib/avr6\libm.a(fp_pscB.o)
 .bss           0x00000000        0x0 c:/program files (x86)/atmel/studio/7.0/toolchain/avr8/avr8-gnu-toolchain/bin/../lib/gcc/avr/5.4.0/../../../../avr/lib/avr6\libm.a(fp_pscB.o)
 .text          0x00000000        0x0 c:/program files (x86)/atmel/studio/7.0/toolchain/avr8/avr8-gnu-toolchain/bin/../lib/gcc/avr/5.4.0/../../../../avr/lib/avr6\libm.a(fp_rempio2.o)
 .data          0x00000000        0x0 c:/program files (x86)/atmel/studio/7.0/toolchain/avr8/avr8-gnu-toolchain/bin/../lib/gcc/avr/5.4.0/../../../../avr/lib/avr6\libm.a(fp_rempio2.o)
 .bss           0x00000000        0x0 c:/program files (x86)/atmel/studio/7.0/toolchain/avr8/avr8-gnu-toolchain/bin/../lib/gcc/avr/5.4.0/../../../../avr/lib/avr6\libm.a(fp_rempio2.o)
 .text          0x00000000        0x0 c:/program files (x86)/atmel/studio/7.0/toolchain/avr8/avr8-gnu-toolchain/bin/../lib/gcc/avr/5.4.0/../../../../avr/lib/avr6\libm.a(fp_round.o)
 .data          0x00000000        0x0 c:/program files (x86)/atmel/studio/7.0/toolchain/avr8/avr8-gnu-toolchain/bin/../lib/gcc/avr/5.4.0/../../../../avr/lib/avr6\libm.a(fp_round.o)
 .bss           0x00000000        0x0 c:/program files (x86)/atmel/studio/7.0/toolchain/avr8/avr8-gnu-toolchain/bin/../lib/gcc/avr/5.4.0/../../../../avr/lib/avr6\libm.a(fp_round.o)
 .text          0x00000000        0x0 c:/program files (x86)/atmel/studio/7.0/toolchain/avr8/avr8-gnu-toolchain/bin/../lib/gcc/avr/5.4.0/../../../../avr/lib/avr6\libm.a(fp_sinus.o)
 .data          0x00000000        0x0 c:/program files (x86)/atmel/studio/7.0/toolchain/avr8/avr8-gnu-toolchain/bin/../lib/gcc/avr/5.4.0/../../../../avr/lib/avr6\libm.a(fp_sinus.o)
 .bss           0x00000000        0x0 c:/program files (x86)/atmel/studio/7.0/toolchain/avr8/avr8-gnu-toolchain/bin/../lib/gcc/avr/5.4.0/../../../../avr/lib/avr6\libm.a(fp_sinus.o)
 .text          0x00000000        0x0 c:/program files (x86)/atmel/studio/7.0/toolchain/avr8/avr8-gnu-toolchain/bin/../lib/gcc/avr/5.4.0/../../../../avr/lib/avr6\libm.a(fp_split3.o)
 .data          0x00000000        0x0 c:/program files (x86)/atmel/studio/7.0/toolchain/avr8/avr8-gnu-toolchain/bin/../lib/gcc/avr/5.4.0/../../../../avr/lib/avr6\libm.a(fp_split3.o)
 .bss           0x00000000        0x0 c:/program files (x86)/atmel/studio/7.0/toolchain/avr8/avr8-gnu-toolchain/bin/../lib/gcc/avr/5.4.0/../../../../avr/lib/avr6\libm.a(fp_split3.o)
 .text          0x00000000        0x0 c:/program files (x86)/atmel/studio/7.0/toolchain/avr8/avr8-gnu-toolchain/bin/../lib/gcc/avr/5.4.0/../../../../avr/lib/avr6\libm.a(fp_zero.o)
 .data          0x00000000        0x0 c:/program files (x86)/atmel/studio/7.0/toolchain/avr8/avr8-gnu-toolchain/bin/../lib/gcc/avr/5.4.0/../../../../avr/lib/avr6\libm.a(fp_zero.o)
 .bss           0x00000000        0x0 c:/program files (x86)/atmel/studio/7.0/toolchain/avr8/avr8-gnu-toolchain/bin/../lib/gcc/avr/5.4.0/../../../../avr/lib/avr6\libm.a(fp_zero.o)
 .text          0x00000000        0x0 c:/program files (x86)/atmel/studio/7.0/toolchain/avr8/avr8-gnu-toolchain/bin/../lib/gcc/avr/5.4.0/../../../../avr/lib/avr6\libm.a(gesf2.o)
 .data          0x00000000        0x0 c:/program files (x86)/atmel/studio/7.0/toolchain/avr8/avr8-gnu-toolchain/bin/../lib/gcc/avr/5.4.0/../../../../avr/lib/avr6\libm.a(gesf2.o)
 .bss           0x00000000        0x0 c:/program files (x86)/atmel/studio/7.0/toolchain/avr8/avr8-gnu-toolchain/bin/../lib/gcc/avr/5.4.0/../../../../avr/lib/avr6\libm.a(gesf2.o)
 .text          0x00000000        0x0 c:/program files (x86)/atmel/studio/7.0/toolchain/avr8/avr8-gnu-toolchain/bin/../lib/gcc/avr/5.4.0/../../../../avr/lib/avr6\libm.a(inverse.o)
 .data          0x00000000        0x0 c:/program files (x86)/atmel/studio/7.0/toolchain/avr8/avr8-gnu-toolchain/bin/../lib/gcc/avr/5.4.0/../../../../avr/lib/avr6\libm.a(inverse.o)
 .bss           0x00000000        0x0 c:/program files (x86)/atmel/studio/7.0/toolchain/avr8/avr8-gnu-toolchain/bin/../lib/gcc/avr/5.4.0/../../../../avr/lib/avr6\libm.a(inverse.o)
 .text          0x00000000        0x0 c:/program files (x86)/atmel/studio/7.0/toolchain/avr8/avr8-gnu-toolchain/bin/../lib/gcc/avr/5.4.0/../../../../avr/lib/avr6\libm.a(mulsf3.o)
 .data          0x00000000        0x0 c:/program files (x86)/atmel/studio/7.0/toolchain/avr8/avr8-gnu-toolchain/bin/../lib/gcc/avr/5.4.0/../../../../avr/lib/avr6\libm.a(mulsf3.o)
 .bss           0x00000000        0x0 c:/program files (x86)/atmel/studio/7.0/toolchain/avr8/avr8-gnu-toolchain/bin/../lib/gcc/avr/5.4.0/../../../../avr/lib/avr6\libm.a(mulsf3.o)
 .text          0x00000000        0x0 c:/program files (x86)/atmel/studio/7.0/toolchain/avr8/avr8-gnu-toolchain/bin/../lib/gcc/avr/5.4.0/../../../../avr/lib/avr6\libm.a(mulsf3x.o)
 .data          0x00000000        0x0 c:/program files (x86)/atmel/studio/7.0/toolchain/avr8/avr8-gnu-toolchain/bin/../lib/gcc/avr/5.4.0/../../../../avr/lib/avr6\libm.a(mulsf3x.o)
 .bss           0x00000000        0x0 c:/program files (x86)/atmel/studio/7.0/toolchain/avr8/avr8-gnu-toolchain/bin/../lib/gcc/avr/5.4.0/../../../../avr/lib/avr6\libm.a(mulsf3x.o)
 .text          0x00000000        0x0 c:/program files (x86)/atmel/studio/7.0/toolchain/avr8/avr8-gnu-toolchain/bin/../lib/gcc/avr/5.4.0/../../../../avr/lib/avr6\libm.a(sin.o)
 .data          0x00000000        0x0 c:/program files (x86)/atmel/studio/7.0/toolchain/avr8/avr8-gnu-toolchain/bin/../lib/gcc/avr/5.4.0/../../../../avr/lib/avr6\libm.a(sin.o)
 .bss           0x00000000        0x0 c:/program files (x86)/atmel/studio/7.0/toolchain/avr8/avr8-gnu-toolchain/bin/../lib/gcc/avr/5.4.0/../../../../avr/lib/avr6\libm.a(sin.o)
 .text          0x00000000        0x0 c:/program files (x86)/atmel/studio/7.0/toolchain/avr8/avr8-gnu-toolchain/bin/../lib/gcc/avr/5.4.0/../../../../avr/lib/avr6\libm.a(sqrt.o)
 .data          0x00000000        0x0 c:/program files (x86)/atmel/studio/7.0/toolchain/avr8/avr8-gnu-toolchain/bin/../lib/gcc/avr/5.4.0/../../../../avr/lib/avr6\libm.a(sqrt.o)
 .bss           0x00000000        0x0 c:/program files (x86)/atmel/studio/7.0/toolchain/avr8/avr8-gnu-toolchain/bin/../lib/gcc/avr/5.4.0/../../../../avr/lib/avr6\libm.a(sqrt.o)
 .text          0x00000000        0x0 c:/program files (x86)/atmel/studio/7.0/toolchain/avr8/avr8-gnu-toolchain/bin/../lib/gcc/avr/5.4.0/../../../../avr/lib/avr6\libm.a(square.o)
 .data          0x00000000        0x0 c:/program files (x86)/atmel/studio/7.0/toolchain/avr8/avr8-gnu-toolchain/bin/../lib/gcc/avr/5.4.0/../../../../avr/lib/avr6\libm.a(square.o)
 .bss           0x00000000        0x0 c:/program files (x86)/atmel/studio/7.0/toolchain/avr8/avr8-gnu-toolchain/bin/../lib/gcc/avr/5.4.0/../../../../avr/lib/avr6\libm.a(square.o)
 .text          0x00000000        0x0 c:/program files (x86)/atmel/studio/7.0/toolchain/avr8/avr8-gnu-toolchain/bin/../lib/gcc/avr/5.4.0/../../../../avr/lib/avr6\libm.a(unordsf2.o)
 .data          0x00000000        0x0 c:/program files (x86)/atmel/studio/7.0/toolchain/avr8/avr8-gnu-toolchain/bin/../lib/gcc/avr/5.4.0/../../../../avr/lib/avr6\libm.a(unordsf2.o)
 .bss           0x00000000        0x0 c:/program files (x86)/atmel/studio/7.0/toolchain/avr8/avr8-gnu-toolchain/bin/../lib/gcc/avr/5.4.0/../../../../avr/lib/avr6\libm.a(unordsf2.o)
 .text          0x00000000        0x0 c:/program files (x86)/atmel/studio/7.0/toolchain/avr8/avr8-gnu-toolchain/bin/../lib/gcc/avr/5.4.0/../../../../avr/lib/avr6\libm.a(fp_mpack.o)
 .data          0x00000000        0x0 c:/program files (x86)/atmel/studio/7.0/toolchain/avr8/avr8-gnu-toolchain/bin/../lib/gcc/avr/5.4.0/../../../../avr/lib/avr6\libm.a(fp_mpack.o)
 .bss           0x00000000        0x0 c:/program files (x86)/atmel/studio/7.0/toolchain/avr8/avr8-gnu-toolchain/bin/../lib/gcc/avr/5.4.0/../../../../avr/lib/avr6\libm.a(fp_mpack.o)
 .text          0x00000000        0x0 c:/program files (x86)/atmel/studio/7.0/toolchain/avr8/avr8-gnu-toolchain/bin/../lib/gcc/avr/5.4.0/../../../../avr/lib/avr6\libm.a(fp_norm2.o)
 .data          0x00000000        0x0 c:/program files (x86)/atmel/studio/7.0/toolchain/avr8/avr8-gnu-toolchain/bin/../lib/gcc/avr/5.4.0/../../../../avr/lib/avr6\libm.a(fp_norm2.o)
 .bss           0x00000000        0x0 c:/program files (x86)/atmel/studio/7.0/toolchain/avr8/avr8-gnu-toolchain/bin/../lib/gcc/avr/5.4.0/../../../../avr/lib/avr6\libm.a(fp_norm2.o)
 .text          0x00000000        0x0 c:/program files (x86)/atmel/studio/7.0/toolchain/avr8/avr8-gnu-toolchain/bin/../lib/gcc/avr/5.4.0/../../../../avr/lib/avr6\libm.a(fp_powsodd.o)
 .data          0x00000000        0x0 c:/program files (x86)/atmel/studio/7.0/toolchain/avr8/avr8-gnu-toolchain/bin/../lib/gcc/avr/5.4.0/../../../../avr/lib/avr6\libm.a(fp_powsodd.o)
 .bss           0x00000000        0x0 c:/program files (x86)/atmel/studio/7.0/toolchain/avr8/avr8-gnu-toolchain/bin/../lib/gcc/avr/5.4.0/../../../../avr/lib/avr6\libm.a(fp_powsodd.o)
 .text          0x00000000        0x0 c:/program files (x86)/atmel/studio/7.0/toolchain/avr8/avr8-gnu-toolchain/bin/../lib/gcc/avr/5.4.0/avr6\libgcc.a(_mulsi3.o)
 .data          0x00000000        0x0 c:/program files (x86)/atmel/studio/7.0/toolchain/avr8/avr8-gnu-toolchain/bin/../lib/gcc/avr/5.4.0/avr6\libgcc.a(_mulsi3.o)
 .bss           0x00000000        0x0 c:/program files (x86)/atmel/studio/7.0/toolchain/avr8/avr8-gnu-toolchain/bin/../lib/gcc/avr/5.4.0/avr6\libgcc.a(_mulsi3.o)
 .text.libgcc.div
                0x00000000        0x0 c:/program files (x86)/atmel/studio/7.0/toolchain/avr8/avr8-gnu-toolchain/bin/../lib/gcc/avr/5.4.0/avr6\libgcc.a(_mulsi3.o)
 .text.libgcc   0x00000000        0x0 c:/program files (x86)/atmel/studio/7.0/toolchain/avr8/avr8-gnu-toolchain/bin/../lib/gcc/avr/5.4.0/avr6\libgcc.a(_mulsi3.o)
 .text.libgcc.prologue
                0x00000000        0x0 c:/program files (x86)/atmel/studio/7.0/toolchain/avr8/avr8-gnu-toolchain/bin/../lib/gcc/avr/5.4.0/avr6\libgcc.a(_mulsi3.o)
 .text.libgcc.builtins
                0x00000000        0x0 c:/program files (x86)/atmel/studio/7.0/toolchain/avr8/avr8-gnu-toolchain/bin/../lib/gcc/avr/5.4.0/avr6\libgcc.a(_mulsi3.o)
 .text.libgcc.fmul
                0x00000000        0x0 c:/program files (x86)/atmel/studio/7.0/toolchain/avr8/avr8-gnu-toolchain/bin/../lib/gcc/avr/5.4.0/avr6\libgcc.a(_mulsi3.o)
 .text.libgcc.fixed
                0x00000000        0x0 c:/program files (x86)/atmel/studio/7.0/toolchain/avr8/avr8-gnu-toolchain/bin/../lib/gcc/avr/5.4.0/avr6\libgcc.a(_mulsi3.o)
 .text          0x00000000        0x0 c:/program files (x86)/atmel/studio/7.0/toolchain/avr8/avr8-gnu-toolchain/bin/../lib/gcc/avr/5.4.0/avr6\libgcc.a(_udivmodqi4.o)
 .data          0x00000000        0x0 c:/program files (x86)/atmel/studio/7.0/toolchain/avr8/avr8-gnu-toolchain/bin/../lib/gcc/avr/5.4.0/avr6\libgcc.a(_udivmodqi4.o)
 .bss           0x00000000        0x0 c:/program files (x86)/atmel/studio/7.0/toolchain/avr8/avr8-gnu-toolchain/bin/../lib/gcc/avr/5.4.0/avr6\libgcc.a(_udivmodqi4.o)
 .text.libgcc.mul
                0x00000000        0x0 c:/program files (x86)/atmel/studio/7.0/toolchain/avr8/avr8-gnu-toolchain/bin/../lib/gcc/avr/5.4.0/avr6\libgcc.a(_udivmodqi4.o)
 .text.libgcc   0x00000000        0x0 c:/program files (x86)/atmel/studio/7.0/toolchain/avr8/avr8-gnu-toolchain/bin/../lib/gcc/avr/5.4.0/avr6\libgcc.a(_udivmodqi4.o)
 .text.libgcc.prologue
                0x00000000        0x0 c:/program files (x86)/atmel/studio/7.0/toolchain/avr8/avr8-gnu-toolchain/bin/../lib/gcc/avr/5.4.0/avr6\libgcc.a(_udivmodqi4.o)
 .text.libgcc.builtins
                0x00000000        0x0 c:/program files (x86)/atmel/studio/7.0/toolchain/avr8/avr8-gnu-toolchain/bin/../lib/gcc/avr/5.4.0/avr6\libgcc.a(_udivmodqi4.o)
 .text.libgcc.fmul
                0x00000000        0x0 c:/program files (x86)/atmel/studio/7.0/toolchain/avr8/avr8-gnu-toolchain/bin/../lib/gcc/avr/5.4.0/avr6\libgcc.a(_udivmodqi4.o)
 .text.libgcc.fixed
                0x00000000        0x0 c:/program files (x86)/atmel/studio/7.0/toolchain/avr8/avr8-gnu-toolchain/bin/../lib/gcc/avr/5.4.0/avr6\libgcc.a(_udivmodqi4.o)
 .text          0x00000000        0x0 c:/program files (x86)/atmel/studio/7.0/toolchain/avr8/avr8-gnu-toolchain/bin/../lib/gcc/avr/5.4.0/avr6\libgcc.a(_divmodhi4.o)
 .data          0x00000000        0x0 c:/program files (x86)/atmel/studio/7.0/toolchain/avr8/avr8-gnu-toolchain/bin/../lib/gcc/avr/5.4.0/avr6\libgcc.a(_divmodhi4.o)
 .bss           0x00000000        0x0 c:/program files (x86)/atmel/studio/7.0/toolchain/avr8/avr8-gnu-toolchain/bin/../lib/gcc/avr/5.4.0/avr6\libgcc.a(_divmodhi4.o)
 .text.libgcc.mul
                0x00000000        0x0 c:/program files (x86)/atmel/studio/7.0/toolchain/avr8/avr8-gnu-toolchain/bin/../lib/gcc/avr/5.4.0/avr6\libgcc.a(_divmodhi4.o)
 .text.libgcc   0x00000000        0x0 c:/program files (x86)/atmel/studio/7.0/toolchain/avr8/avr8-gnu-toolchain/bin/../lib/gcc/avr/5.4.0/avr6\libgcc.a(_divmodhi4.o)
 .text.libgcc.prologue
                0x00000000        0x0 c:/program files (x86)/atmel/studio/7.0/toolchain/avr8/avr8-gnu-toolchain/bin/../lib/gcc/avr/5.4.0/avr6\libgcc.a(_divmodhi4.o)
 .text.libgcc.builtins
                0x00000000        0x0 c:/program files (x86)/atmel/studio/7.0/toolchain/avr8/avr8-gnu-toolchain/bin/../lib/gcc/avr/5.4.0/avr6\libgcc.a(_divmodhi4.o)
 .text.libgcc.fmul
                0x00000000        0x0 c:/program files (x86)/atmel/studio/7.0/toolchain/avr8/avr8-gnu-toolchain/bin/../lib/gcc/avr/5.4.0/avr6\libgcc.a(_divmodhi4.o)
 .text.libgcc.fixed
                0x00000000        0x0 c:/program files (x86)/atmel/studio/7.0/toolchain/avr8/avr8-gnu-toolchain/bin/../lib/gcc/avr/5.4.0/avr6\libgcc.a(_divmodhi4.o)
 .text          0x00000000        0x0 c:/program files (x86)/atmel/studio/7.0/toolchain/avr8/avr8-gnu-toolchain/bin/../lib/gcc/avr/5.4.0/avr6\libgcc.a(_udivmodsi4.o)
 .data          0x00000000        0x0 c:/program files (x86)/atmel/studio/7.0/toolchain/avr8/avr8-gnu-toolchain/bin/../lib/gcc/avr/5.4.0/avr6\libgcc.a(_udivmodsi4.o)
 .bss           0x00000000        0x0 c:/program files (x86)/atmel/studio/7.0/toolchain/avr8/avr8-gnu-toolchain/bin/../lib/gcc/avr/5.4.0/avr6\libgcc.a(_udivmodsi4.o)
 .text.libgcc.mul
                0x00000000        0x0 c:/program files (x86)/atmel/studio/7.0/toolchain/avr8/avr8-gnu-toolchain/bin/../lib/gcc/avr/5.4.0/avr6\libgcc.a(_udivmodsi4.o)
 .text.libgcc   0x00000000        0x0 c:/program files (x86)/atmel/studio/7.0/toolchain/avr8/avr8-gnu-toolchain/bin/../lib/gcc/avr/5.4.0/avr6\libgcc.a(_udivmodsi4.o)
 .text.libgcc.prologue
                0x00000000        0x0 c:/program files (x86)/atmel/studio/7.0/toolchain/avr8/avr8-gnu-toolchain/bin/../lib/gcc/avr/5.4.0/avr6\libgcc.a(_udivmodsi4.o)
 .text.libgcc.builtins
                0x00000000        0x0 c:/program files (x86)/atmel/studio/7.0/toolchain/avr8/avr8-gnu-toolchain/bin/../lib/gcc/avr/5.4.0/avr6\libgcc.a(_udivmodsi4.o)
 .text.libgcc.fmul
                0x00000000        0x0 c:/program files (x86)/atmel/studio/7.0/toolchain/avr8/avr8-gnu-toolchain/bin/../lib/gcc/avr/5.4.0/avr6\libgcc.a(_udivmodsi4.o)
 .text.libgcc.fixed
                0x00000000        0x0 c:/program files (x86)/atmel/studio/7.0/toolchain/avr8/avr8-gnu-toolchain/bin/../lib/gcc/avr/5.4.0/avr6\libgcc.a(_udivmodsi4.o)
 .text          0x00000000        0x0 c:/program files (x86)/atmel/studio/7.0/toolchain/avr8/avr8-gnu-toolchain/bin/../lib/gcc/avr/5.4.0/avr6\libgcc.a(_divmodsi4.o)
 .data          0x00000000        0x0 c:/program files (x86)/atmel/studio/7.0/toolchain/avr8/avr8-gnu-toolchain/bin/../lib/gcc/avr/5.4.0/avr6\libgcc.a(_divmodsi4.o)
 .bss           0x00000000        0x0 c:/program files (x86)/atmel/studio/7.0/toolchain/avr8/avr8-gnu-toolchain/bin/../lib/gcc/avr/5.4.0/avr6\libgcc.a(_divmodsi4.o)
 .text.libgcc.mul
                0x00000000        0x0 c:/program files (x86)/atmel/studio/7.0/toolchain/avr8/avr8-gnu-toolchain/bin/../lib/gcc/avr/5.4.0/avr6\libgcc.a(_divmodsi4.o)
 .text.libgcc   0x00000000        0x0 c:/program files (x86)/atmel/studio/7.0/toolchain/avr8/avr8-gnu-toolchain/bin/../lib/gcc/avr/5.4.0/avr6\libgcc.a(_divmodsi4.o)
 .text.libgcc.prologue
                0x00000000        0x0 c:/program files (x86)/atmel/studio/7.0/toolchain/avr8/avr8-gnu-toolchain/bin/../lib/gcc/avr/5.4.0/avr6\libgcc.a(_divmodsi4.o)
 .text.libgcc.builtins
                0x00000000        0x0 c:/program files (x86)/atmel/studio/7.0/toolchain/avr8/avr8-gnu-toolchain/bin/../lib/gcc/avr/5.4.0/avr6\libgcc.a(_divmodsi4.o)
 .text.libgcc.fmul
                0x00000000        0x0 c:/program files (x86)/atmel/studio/7.0/toolchain/avr8/avr8-gnu-toolchain/bin/../lib/gcc/avr/5.4.0/avr6\libgcc.a(_divmodsi4.o)
 .text.libgcc.fixed
                0x00000000        0x0 c:/program files (x86)/atmel/studio/7.0/toolchain/avr8/avr8-gnu-toolchain/bin/../lib/gcc/avr/5.4.0/avr6\libgcc.a(_divmodsi4.o)
 .text          0x00000000        0x0 c:/program files (x86)/atmel/studio/7.0/toolchain/avr8/avr8-gnu-toolchain/bin/../lib/gcc/avr/5.4.0/avr6\libgcc.a(_negsi2.o)
 .data          0x00000000        0x0 c:/program files (x86)/atmel/studio/7.0/toolchain/avr8/avr8-gnu-toolchain/bin/../lib/gcc/avr/5.4.0/avr6\libgcc.a(_negsi2.o)
 .bss           0x00000000        0x0 c:/program files (x86)/atmel/studio/7.0/toolchain/avr8/avr8-gnu-toolchain/bin/../lib/gcc/avr/5.4.0/avr6\libgcc.a(_negsi2.o)
 .text.libgcc.mul
                0x00000000        0x0 c:/program files (x86)/atmel/studio/7.0/toolchain/avr8/avr8-gnu-toolchain/bin/../lib/gcc/avr/5.4.0/avr6\libgcc.a(_negsi2.o)
 .text.libgcc   0x00000000        0x0 c:/program files (x86)/atmel/studio/7.0/toolchain/avr8/avr8-gnu-toolchain/bin/../lib/gcc/avr/5.4.0/avr6\libgcc.a(_negsi2.o)
 .text.libgcc.prologue
                0x00000000        0x0 c:/program files (x86)/atmel/studio/7.0/toolchain/avr8/avr8-gnu-toolchain/bin/../lib/gcc/avr/5.4.0/avr6\libgcc.a(_negsi2.o)
 .text.libgcc.builtins
                0x00000000        0x0 c:/program files (x86)/atmel/studio/7.0/toolchain/avr8/avr8-gnu-toolchain/bin/../lib/gcc/avr/5.4.0/avr6\libgcc.a(_negsi2.o)
 .text.libgcc.fmul
                0x00000000        0x0 c:/program files (x86)/atmel/studio/7.0/toolchain/avr8/avr8-gnu-toolchain/bin/../lib/gcc/avr/5.4.0/avr6\libgcc.a(_negsi2.o)
 .text.libgcc.fixed
                0x00000000        0x0 c:/program files (x86)/atmel/studio/7.0/toolchain/avr8/avr8-gnu-toolchain/bin/../lib/gcc/avr/5.4.0/avr6\libgcc.a(_negsi2.o)
 .text          0x00000000        0x0 c:/program files (x86)/atmel/studio/7.0/toolchain/avr8/avr8-gnu-toolchain/bin/../lib/gcc/avr/5.4.0/avr6\libgcc.a(_exit.o)
 .data          0x00000000        0x0 c:/program files (x86)/atmel/studio/7.0/toolchain/avr8/avr8-gnu-toolchain/bin/../lib/gcc/avr/5.4.0/avr6\libgcc.a(_exit.o)
 .bss           0x00000000        0x0 c:/program files (x86)/atmel/studio/7.0/toolchain/avr8/avr8-gnu-toolchain/bin/../lib/gcc/avr/5.4.0/avr6\libgcc.a(_exit.o)
 .text.libgcc.mul
                0x00000000        0x0 c:/program files (x86)/atmel/studio/7.0/toolchain/avr8/avr8-gnu-toolchain/bin/../lib/gcc/avr/5.4.0/avr6\libgcc.a(_exit.o)
 .text.libgcc.div
                0x00000000        0x0 c:/program files (x86)/atmel/studio/7.0/toolchain/avr8/avr8-gnu-toolchain/bin/../lib/gcc/avr/5.4.0/avr6\libgcc.a(_exit.o)
 .text.libgcc   0x00000000        0x0 c:/program files (x86)/atmel/studio/7.0/toolchain/avr8/avr8-gnu-toolchain/bin/../lib/gcc/avr/5.4.0/avr6\libgcc.a(_exit.o)
 .text.libgcc.prologue
                0x00000000        0x0 c:/program files (x86)/atmel/studio/7.0/toolchain/avr8/avr8-gnu-toolchain/bin/../lib/gcc/avr/5.4.0/avr6\libgcc.a(_exit.o)
 .text.libgcc.builtins
                0x00000000        0x0 c:/program files (x86)/atmel/studio/7.0/toolchain/avr8/avr8-gnu-toolchain/bin/../lib/gcc/avr/5.4.0/avr6\libgcc.a(_exit.o)
 .text.libgcc.fmul
                0x00000000        0x0 c:/program files (x86)/atmel/studio/7.0/toolchain/avr8/avr8-gnu-toolchain/bin/../lib/gcc/avr/5.4.0/avr6\libgcc.a(_exit.o)
 .text.libgcc.fixed
                0x00000000        0x0 c:/program files (x86)/atmel/studio/7.0/toolchain/avr8/avr8-gnu-toolchain/bin/../lib/gcc/avr/5.4.0/avr6\libgcc.a(_exit.o)
 .text          0x00000000        0x0 c:/program files (x86)/atmel/studio/7.0/toolchain/avr8/avr8-gnu-toolchain/bin/../lib/gcc/avr/5.4.0/avr6\libgcc.a(_tablejump2.o)
 .data          0x00000000        0x0 c:/program files (x86)/atmel/studio/7.0/toolchain/avr8/avr8-gnu-toolchain/bin/../lib/gcc/avr/5.4.0/avr6\libgcc.a(_tablejump2.o)
 .bss           0x00000000        0x0 c:/program files (x86)/atmel/studio/7.0/toolchain/avr8/avr8-gnu-toolchain/bin/../lib/gcc/avr/5.4.0/avr6\libgcc.a(_tablejump2.o)
 .text.libgcc.mul
                0x00000000        0x0 c:/program files (x86)/atmel/studio/7.0/toolchain/avr8/avr8-gnu-toolchain/bin/../lib/gcc/avr/5.4.0/avr6\libgcc.a(_tablejump2.o)
 .text.libgcc.div
                0x00000000        0x0 c:/program files (x86)/atmel/studio/7.0/toolchain/avr8/avr8-gnu-toolchain/bin/../lib/gcc/avr/5.4.0/avr6\libgcc.a(_tablejump2.o)
 .text.libgcc.prologue
                0x00000000        0x0 c:/program files (x86)/atmel/studio/7.0/toolchain/avr8/avr8-gnu-toolchain/bin/../lib/gcc/avr/5.4.0/avr6\libgcc.a(_tablejump2.o)
 .text.libgcc.builtins
                0x00000000        0x0 c:/program files (x86)/atmel/studio/7.0/toolchain/avr8/avr8-gnu-toolchain/bin/../lib/gcc/avr/5.4.0/avr6\libgcc.a(_tablejump2.o)
 .text.libgcc.fmul
                0x00000000        0x0 c:/program files (x86)/atmel/studio/7.0/toolchain/avr8/avr8-gnu-toolchain/bin/../lib/gcc/avr/5.4.0/avr6\libgcc.a(_tablejump2.o)
 .text.libgcc.fixed
                0x00000000        0x0 c:/program files (x86)/atmel/studio/7.0/toolchain/avr8/avr8-gnu-toolchain/bin/../lib/gcc/avr/5.4.0/avr6\libgcc.a(_tablejump2.o)
 .text          0x00000000        0x0 c:/program files (x86)/atmel/studio/7.0/toolchain/avr8/avr8-gnu-toolchain/bin/../lib/gcc/avr/5.4.0/avr6\libgcc.a(_copy_data.o)
 .data          0x00000000        0x0 c:/program files (x86)/atmel/studio/7.0/toolchain/avr8/avr8-gnu-toolchain/bin/../lib/gcc/avr/5.4.0/avr6\libgcc.a(_copy_data.o)
 .bss           0x00000000        0x0 c:/program files (x86)/atmel/studio/7.0/toolchain/avr8/avr8-gnu-toolchain/bin/../lib/gcc/avr/5.4.0/avr6\libgcc.a(_copy_data.o)
 .text.libgcc.mul
                0x00000000        0x0 c:/program files (x86)/atmel/studio/7.0/toolchain/avr8/avr8-gnu-toolchain/bin/../lib/gcc/avr/5.4.0/avr6\libgcc.a(_copy_data.o)
 .text.libgcc.div
                0x00000000        0x0 c:/program files (x86)/atmel/studio/7.0/toolchain/avr8/avr8-gnu-toolchain/bin/../lib/gcc/avr/5.4.0/avr6\libgcc.a(_copy_data.o)
 .text.libgcc   0x00000000        0x0 c:/program files (x86)/atmel/studio/7.0/toolchain/avr8/avr8-gnu-toolchain/bin/../lib/gcc/avr/5.4.0/avr6\libgcc.a(_copy_data.o)
 .text.libgcc.prologue
                0x00000000        0x0 c:/program files (x86)/atmel/studio/7.0/toolchain/avr8/avr8-gnu-toolchain/bin/../lib/gcc/avr/5.4.0/avr6\libgcc.a(_copy_data.o)
 .text.libgcc.builtins
                0x00000000        0x0 c:/program files (x86)/atmel/studio/7.0/toolchain/avr8/avr8-gnu-toolchain/bin/../lib/gcc/avr/5.4.0/avr6\libgcc.a(_copy_data.o)
 .text.libgcc.fmul
                0x00000000        0x0 c:/program files (x86)/atmel/studio/7.0/toolchain/avr8/avr8-gnu-toolchain/bin/../lib/gcc/avr/5.4.0/avr6\libgcc.a(_copy_data.o)
 .text.libgcc.fixed
                0x00000000        0x0 c:/program files (x86)/atmel/studio/7.0/toolchain/avr8/avr8-gnu-toolchain/bin/../lib/gcc/avr/5.4.0/avr6\libgcc.a(_copy_data.o)
 .text          0x00000000        0x0 c:/program files (x86)/atmel/studio/7.0/toolchain/avr8/avr8-gnu-toolchain/bin/../lib/gcc/avr/5.4.0/avr6\libgcc.a(_clear_bss.o)
 .data          0x00000000        0x0 c:/program files (x86)/atmel/studio/7.0/toolchain/avr8/avr8-gnu-toolchain/bin/../lib/gcc/avr/5.4.0/avr6\libgcc.a(_clear_bss.o)
 .bss           0x00000000        0x0 c:/program files (x86)/atmel/studio/7.0/toolchain/avr8/avr8-gnu-toolchain/bin/../lib/gcc/avr/5.4.0/avr6\libgcc.a(_clear_bss.o)
 .text.libgcc.mul
                0x00000000        0x0 c:/program files (x86)/atmel/studio/7.0/toolchain/avr8/avr8-gnu-toolchain/bin/../lib/gcc/avr/5.4.0/avr6\libgcc.a(_clear_bss.o)
 .text.libgcc.div
                0x00000000        0x0 c:/program files (x86)/atmel/studio/7.0/toolchain/avr8/avr8-gnu-toolchain/bin/../lib/gcc/avr/5.4.0/avr6\libgcc.a(_clear_bss.o)
 .text.libgcc   0x00000000        0x0 c:/program files (x86)/atmel/studio/7.0/toolchain/avr8/avr8-gnu-toolchain/bin/../lib/gcc/avr/5.4.0/avr6\libgcc.a(_clear_bss.o)
 .text.libgcc.prologue
                0x00000000        0x0 c:/program files (x86)/atmel/studio/7.0/toolchain/avr8/avr8-gnu-toolchain/bin/../lib/gcc/avr/5.4.0/avr6\libgcc.a(_clear_bss.o)
 .text.libgcc.builtins
                0x00000000        0x0 c:/program files (x86)/atmel/studio/7.0/toolchain/avr8/avr8-gnu-toolchain/bin/../lib/gcc/avr/5.4.0/avr6\libgcc.a(_clear_bss.o)
 .text.libgcc.fmul
                0x00000000        0x0 c:/program files (x86)/atmel/studio/7.0/toolchain/avr8/avr8-gnu-toolchain/bin/../lib/gcc/avr/5.4.0/avr6\libgcc.a(_clear_bss.o)
 .text.libgcc.fixed
                0x00000000        0x0 c:/program files (x86)/atmel/studio/7.0/toolchain/avr8/avr8-gnu-toolchain/bin/../lib/gcc/avr/5.4.0/avr6\libgcc.a(_clear_bss.o)
 .text          0x00000000        0x0 c:/program files (x86)/atmel/studio/7.0/toolchain/avr8/avr8-gnu-toolchain/bin/../lib/gcc/avr/5.4.0/avr6\libgcc.a(_ctors.o)
 .data          0x00000000        0x0 c:/program files (x86)/atmel/studio/7.0/toolchain/avr8/avr8-gnu-toolchain/bin/../lib/gcc/avr/5.4.0/avr6\libgcc.a(_ctors.o)
 .bss           0x00000000        0x0 c:/program files (x86)/atmel/studio/7.0/toolchain/avr8/avr8-gnu-toolchain/bin/../lib/gcc/avr/5.4.0/avr6\libgcc.a(_ctors.o)
 .text.libgcc.mul
                0x00000000        0x0 c:/program files (x86)/atmel/studio/7.0/toolchain/avr8/avr8-gnu-toolchain/bin/../lib/gcc/avr/5.4.0/avr6\libgcc.a(_ctors.o)
 .text.libgcc.div
                0x00000000        0x0 c:/program files (x86)/atmel/studio/7.0/toolchain/avr8/avr8-gnu-toolchain/bin/../lib/gcc/avr/5.4.0/avr6\libgcc.a(_ctors.o)
 .text.libgcc   0x00000000        0x0 c:/program files (x86)/atmel/studio/7.0/toolchain/avr8/avr8-gnu-toolchain/bin/../lib/gcc/avr/5.4.0/avr6\libgcc.a(_ctors.o)
 .text.libgcc.prologue
                0x00000000        0x0 c:/program files (x86)/atmel/studio/7.0/toolchain/avr8/avr8-gnu-toolchain/bin/../lib/gcc/avr/5.4.0/avr6\libgcc.a(_ctors.o)
 .text.libgcc.builtins
                0x00000000        0x0 c:/program files (x86)/atmel/studio/7.0/toolchain/avr8/avr8-gnu-toolchain/bin/../lib/gcc/avr/5.4.0/avr6\libgcc.a(_ctors.o)
 .text.libgcc.fmul
                0x00000000        0x0 c:/program files (x86)/atmel/studio/7.0/toolchain/avr8/avr8-gnu-toolchain/bin/../lib/gcc/avr/5.4.0/avr6\libgcc.a(_ctors.o)
 .text.libgcc.fixed
                0x00000000        0x0 c:/program files (x86)/atmel/studio/7.0/toolchain/avr8/avr8-gnu-toolchain/bin/../lib/gcc/avr/5.4.0/avr6\libgcc.a(_ctors.o)
 .text          0x00000000        0x0 c:/program files (x86)/atmel/studio/7.0/toolchain/avr8/avr8-gnu-toolchain/bin/../lib/gcc/avr/5.4.0/avr6\libgcc.a(_umulhisi3.o)
 .data          0x00000000        0x0 c:/program files (x86)/atmel/studio/7.0/toolchain/avr8/avr8-gnu-toolchain/bin/../lib/gcc/avr/5.4.0/avr6\libgcc.a(_umulhisi3.o)
 .bss           0x00000000        0x0 c:/program files (x86)/atmel/studio/7.0/toolchain/avr8/avr8-gnu-toolchain/bin/../lib/gcc/avr/5.4.0/avr6\libgcc.a(_umulhisi3.o)
 .text.libgcc.div
                0x00000000        0x0 c:/program files (x86)/atmel/studio/7.0/toolchain/avr8/avr8-gnu-toolchain/bin/../lib/gcc/avr/5.4.0/avr6\libgcc.a(_umulhisi3.o)
 .text.libgcc   0x00000000        0x0 c:/program files (x86)/atmel/studio/7.0/toolchain/avr8/avr8-gnu-toolchain/bin/../lib/gcc/avr/5.4.0/avr6\libgcc.a(_umulhisi3.o)
 .text.libgcc.prologue
                0x00000000        0x0 c:/program files (x86)/atmel/studio/7.0/toolchain/avr8/avr8-gnu-toolchain/bin/../lib/gcc/avr/5.4.0/avr6\libgcc.a(_umulhisi3.o)
 .text.libgcc.builtins
                0x00000000        0x0 c:/program files (x86)/atmel/studio/7.0/toolchain/avr8/avr8-gnu-toolchain/bin/../lib/gcc/avr/5.4.0/avr6\libgcc.a(_umulhisi3.o)
 .text.libgcc.fmul
                0x00000000        0x0 c:/program files (x86)/atmel/studio/7.0/toolchain/avr8/avr8-gnu-toolchain/bin/../lib/gcc/avr/5.4.0/avr6\libgcc.a(_umulhisi3.o)
 .text.libgcc.fixed
                0x00000000        0x0 c:/program files (x86)/atmel/studio/7.0/toolchain/avr8/avr8-gnu-toolchain/bin/../lib/gcc/avr/5.4.0/avr6\libgcc.a(_umulhisi3.o)
 .text          0x00000000        0x0 c:/program files (x86)/atmel/studio/7.0/toolchain/avr8/avr8-gnu-toolchain/bin/../lib/gcc/avr/5.4.0/avr6\libgcc.a(_muluhisi3.o)
 .data          0x00000000        0x0 c:/program files (x86)/atmel/studio/7.0/toolchain/avr8/avr8-gnu-toolchain/bin/../lib/gcc/avr/5.4.0/avr6\libgcc.a(_muluhisi3.o)
 .bss           0x00000000        0x0 c:/program files (x86)/atmel/studio/7.0/toolchain/avr8/avr8-gnu-toolchain/bin/../lib/gcc/avr/5.4.0/avr6\libgcc.a(_muluhisi3.o)
 .text.libgcc.div
                0x00000000        0x0 c:/program files (x86)/atmel/studio/7.0/toolchain/avr8/avr8-gnu-toolchain/bin/../lib/gcc/avr/5.4.0/avr6\libgcc.a(_muluhisi3.o)
 .text.libgcc   0x00000000        0x0 c:/program files (x86)/atmel/studio/7.0/toolchain/avr8/avr8-gnu-toolchain/bin/../lib/gcc/avr/5.4.0/avr6\libgcc.a(_muluhisi3.o)
 .text.libgcc.prologue
                0x00000000        0x0 c:/program files (x86)/atmel/studio/7.0/toolchain/avr8/avr8-gnu-toolchain/bin/../lib/gcc/avr/5.4.0/avr6\libgcc.a(_muluhisi3.o)
 .text.libgcc.builtins
                0x00000000        0x0 c:/program files (x86)/atmel/studio/7.0/toolchain/avr8/avr8-gnu-toolchain/bin/../lib/gcc/avr/5.4.0/avr6\libgcc.a(_muluhisi3.o)
 .text.libgcc.fmul
                0x00000000        0x0 c:/program files (x86)/atmel/studio/7.0/toolchain/avr8/avr8-gnu-toolchain/bin/../lib/gcc/avr/5.4.0/avr6\libgcc.a(_muluhisi3.o)
 .text.libgcc.fixed
                0x00000000        0x0 c:/program files (x86)/atmel/studio/7.0/toolchain/avr8/avr8-gnu-toolchain/bin/../lib/gcc/avr/5.4.0/avr6\libgcc.a(_muluhisi3.o)
 .text          0x00000000        0x0 c:/program files (x86)/atmel/studio/7.0/toolchain/avr8/avr8-gnu-toolchain/bin/../lib/gcc/avr/5.4.0/avr6\libgcc.a(_udivmodhi4.o)
 .data          0x00000000        0x0 c:/program files (x86)/atmel/studio/7.0/toolchain/avr8/avr8-gnu-toolchain/bin/../lib/gcc/avr/5.4.0/avr6\libgcc.a(_udivmodhi4.o)
 .bss           0x00000000        0x0 c:/program files (x86)/atmel/studio/7.0/toolchain/avr8/avr8-gnu-toolchain/bin/../lib/gcc/avr/5.4.0/avr6\libgcc.a(_udivmodhi4.o)
 .text.libgcc.mul
                0x00000000        0x0 c:/program files (x86)/atmel/studio/7.0/toolchain/avr8/avr8-gnu-toolchain/bin/../lib/gcc/avr/5.4.0/avr6\libgcc.a(_udivmodhi4.o)
 .text.libgcc   0x00000000        0x0 c:/program files (x86)/atmel/studio/7.0/toolchain/avr8/avr8-gnu-toolchain/bin/../lib/gcc/avr/5.4.0/avr6\libgcc.a(_udivmodhi4.o)
 .text.libgcc.prologue
                0x00000000        0x0 c:/program files (x86)/atmel/studio/7.0/toolchain/avr8/avr8-gnu-toolchain/bin/../lib/gcc/avr/5.4.0/avr6\libgcc.a(_udivmodhi4.o)
 .text.libgcc.builtins
                0x00000000        0x0 c:/program files (x86)/atmel/studio/7.0/toolchain/avr8/avr8-gnu-toolchain/bin/../lib/gcc/avr/5.4.0/avr6\libgcc.a(_udivmodhi4.o)
 .text.libgcc.fmul
                0x00000000        0x0 c:/program files (x86)/atmel/studio/7.0/toolchain/avr8/avr8-gnu-toolchain/bin/../lib/gcc/avr/5.4.0/avr6\libgcc.a(_udivmodhi4.o)
 .text.libgcc.fixed
                0x00000000        0x0 c:/program files (x86)/atmel/studio/7.0/toolchain/avr8/avr8-gnu-toolchain/bin/../lib/gcc/avr/5.4.0/avr6\libgcc.a(_udivmodhi4.o)
 .text          0x00000000        0x0 c:/program files (x86)/atmel/studio/7.0/toolchain/avr8/avr8-gnu-toolchain/bin/../lib/gcc/avr/5.4.0/../../../../avr/lib/avr6\libc.a(dtostrf.o)
 .data          0x00000000        0x0 c:/program files (x86)/atmel/studio/7.0/toolchain/avr8/avr8-gnu-toolchain/bin/../lib/gcc/avr/5.4.0/../../../../avr/lib/avr6\libc.a(dtostrf.o)
 .bss           0x00000000        0x0 c:/program files (x86)/atmel/studio/7.0/toolchain/avr8/avr8-gnu-toolchain/bin/../lib/gcc/avr/5.4.0/../../../../avr/lib/avr6\libc.a(dtostrf.o)
 .text          0x00000000        0x0 c:/program files (x86)/atmel/studio/7.0/toolchain/avr8/avr8-gnu-toolchain/bin/../lib/gcc/avr/5.4.0/../../../../avr/lib/avr6\libc.a(malloc.o)
 .bss           0x00000000        0x0 c:/program files (x86)/atmel/studio/7.0/toolchain/avr8/avr8-gnu-toolchain/bin/../lib/gcc/avr/5.4.0/../../../../avr/lib/avr6\libc.a(malloc.o)
 .text          0x00000000        0x0 c:/program files (x86)/atmel/studio/7.0/toolchain/avr8/avr8-gnu-toolchain/bin/../lib/gcc/avr/5.4.0/../../../../avr/lib/avr6\libc.a(random.o)
 .data          0x00000000        0x4 c:/program files (x86)/atmel/studio/7.0/toolchain/avr8/avr8-gnu-toolchain/bin/../lib/gcc/avr/5.4.0/../../../../avr/lib/avr6\libc.a(random.o)
 .bss           0x00000000        0x0 c:/program files (x86)/atmel/studio/7.0/toolchain/avr8/avr8-gnu-toolchain/bin/../lib/gcc/avr/5.4.0/../../../../avr/lib/avr6\libc.a(random.o)
 .text.avr-libc
                0x00000000      0x144 c:/program files (x86)/atmel/studio/7.0/toolchain/avr8/avr8-gnu-toolchain/bin/../lib/gcc/avr/5.4.0/../../../../avr/lib/avr6\libc.a(random.o)
 .comment       0x00000000       0x31 c:/program files (x86)/atmel/studio/7.0/toolchain/avr8/avr8-gnu-toolchain/bin/../lib/gcc/avr/5.4.0/../../../../avr/lib/avr6\libc.a(random.o)
 .text          0x00000000        0x0 c:/program files (x86)/atmel/studio/7.0/toolchain/avr8/avr8-gnu-toolchain/bin/../lib/gcc/avr/5.4.0/../../../../avr/lib/avr6\libc.a(strtol.o)
 .data          0x00000000        0x0 c:/program files (x86)/atmel/studio/7.0/toolchain/avr8/avr8-gnu-toolchain/bin/../lib/gcc/avr/5.4.0/../../../../avr/lib/avr6\libc.a(strtol.o)
 .bss           0x00000000        0x0 c:/program files (x86)/atmel/studio/7.0/toolchain/avr8/avr8-gnu-toolchain/bin/../lib/gcc/avr/5.4.0/../../../../avr/lib/avr6\libc.a(strtol.o)
 .text          0x00000000        0x0 c:/program files (x86)/atmel/studio/7.0/toolchain/avr8/avr8-gnu-toolchain/bin/../lib/gcc/avr/5.4.0/../../../../avr/lib/avr6\libc.a(abort.o)
 .data          0x00000000        0x0 c:/program files (x86)/atmel/studio/7.0/toolchain/avr8/avr8-gnu-toolchain/bin/../lib/gcc/avr/5.4.0/../../../../avr/lib/avr6\libc.a(abort.o)
 .bss           0x00000000        0x0 c:/program files (x86)/atmel/studio/7.0/toolchain/avr8/avr8-gnu-toolchain/bin/../lib/gcc/avr/5.4.0/../../../../avr/lib/avr6\libc.a(abort.o)
 .text          0x00000000        0x0 c:/program files (x86)/atmel/studio/7.0/toolchain/avr8/avr8-gnu-toolchain/bin/../lib/gcc/avr/5.4.0/../../../../avr/lib/avr6\libc.a(isspace.o)
 .data          0x00000000        0x0 c:/program files (x86)/atmel/studio/7.0/toolchain/avr8/avr8-gnu-toolchain/bin/../lib/gcc/avr/5.4.0/../../../../avr/lib/avr6\libc.a(isspace.o)
 .bss           0x00000000        0x0 c:/program files (x86)/atmel/studio/7.0/toolchain/avr8/avr8-gnu-toolchain/bin/../lib/gcc/avr/5.4.0/../../../../avr/lib/avr6\libc.a(isspace.o)
 .text          0x00000000        0x0 c:/program files (x86)/atmel/studio/7.0/toolchain/avr8/avr8-gnu-toolchain/bin/../lib/gcc/avr/5.4.0/../../../../avr/lib/avr6\libc.a(memset.o)
 .data          0x00000000        0x0 c:/program files (x86)/atmel/studio/7.0/toolchain/avr8/avr8-gnu-toolchain/bin/../lib/gcc/avr/5.4.0/../../../../avr/lib/avr6\libc.a(memset.o)
 .bss           0x00000000        0x0 c:/program files (x86)/atmel/studio/7.0/toolchain/avr8/avr8-gnu-toolchain/bin/../lib/gcc/avr/5.4.0/../../../../avr/lib/avr6\libc.a(memset.o)
 .text.avr-libc
                0x00000000        0xe c:/program files (x86)/atmel/studio/7.0/toolchain/avr8/avr8-gnu-toolchain/bin/../lib/gcc/avr/5.4.0/../../../../avr/lib/avr6\libc.a(memset.o)
 .text          0x00000000        0x0 c:/program files (x86)/atmel/studio/7.0/toolchain/avr8/avr8-gnu-toolchain/bin/../lib/gcc/avr/5.4.0/../../../../avr/lib/avr6\libc.a(strcat.o)
 .data          0x00000000        0x0 c:/program files (x86)/atmel/studio/7.0/toolchain/avr8/avr8-gnu-toolchain/bin/../lib/gcc/avr/5.4.0/../../../../avr/lib/avr6\libc.a(strcat.o)
 .bss           0x00000000        0x0 c:/program files (x86)/atmel/studio/7.0/toolchain/avr8/avr8-gnu-toolchain/bin/../lib/gcc/avr/5.4.0/../../../../avr/lib/avr6\libc.a(strcat.o)
 .text          0x00000000        0x0 c:/program files (x86)/atmel/studio/7.0/toolchain/avr8/avr8-gnu-toolchain/bin/../lib/gcc/avr/5.4.0/../../../../avr/lib/avr6\libc.a(strcmp.o)
 .data          0x00000000        0x0 c:/program files (x86)/atmel/studio/7.0/toolchain/avr8/avr8-gnu-toolchain/bin/../lib/gcc/avr/5.4.0/../../../../avr/lib/avr6\libc.a(strcmp.o)
 .bss           0x00000000        0x0 c:/program files (x86)/atmel/studio/7.0/toolchain/avr8/avr8-gnu-toolchain/bin/../lib/gcc/avr/5.4.0/../../../../avr/lib/avr6\libc.a(strcmp.o)
 .text          0x00000000        0x0 c:/program files (x86)/atmel/studio/7.0/toolchain/avr8/avr8-gnu-toolchain/bin/../lib/gcc/avr/5.4.0/../../../../avr/lib/avr6\libc.a(strcpy.o)
 .data          0x00000000        0x0 c:/program files (x86)/atmel/studio/7.0/toolchain/avr8/avr8-gnu-toolchain/bin/../lib/gcc/avr/5.4.0/../../../../avr/lib/avr6\libc.a(strcpy.o)
 .bss           0x00000000        0x0 c:/program files (x86)/atmel/studio/7.0/toolchain/avr8/avr8-gnu-toolchain/bin/../lib/gcc/avr/5.4.0/../../../../avr/lib/avr6\libc.a(strcpy.o)
 .text          0x00000000        0x0 c:/program files (x86)/atmel/studio/7.0/toolchain/avr8/avr8-gnu-toolchain/bin/../lib/gcc/avr/5.4.0/../../../../avr/lib/avr6\libc.a(strncpy.o)
 .data          0x00000000        0x0 c:/program files (x86)/atmel/studio/7.0/toolchain/avr8/avr8-gnu-toolchain/bin/../lib/gcc/avr/5.4.0/../../../../avr/lib/avr6\libc.a(strncpy.o)
 .bss           0x00000000        0x0 c:/program files (x86)/atmel/studio/7.0/toolchain/avr8/avr8-gnu-toolchain/bin/../lib/gcc/avr/5.4.0/../../../../avr/lib/avr6\libc.a(strncpy.o)
 .text.avr-libc
                0x00000000       0x1e c:/program files (x86)/atmel/studio/7.0/toolchain/avr8/avr8-gnu-toolchain/bin/../lib/gcc/avr/5.4.0/../../../../avr/lib/avr6\libc.a(strncpy.o)
 .text          0x00000000        0x0 c:/program files (x86)/atmel/studio/7.0/toolchain/avr8/avr8-gnu-toolchain/bin/../lib/gcc/avr/5.4.0/../../../../avr/lib/avr6\libc.a(itoa_ncheck.o)
 .data          0x00000000        0x0 c:/program files (x86)/atmel/studio/7.0/toolchain/avr8/avr8-gnu-toolchain/bin/../lib/gcc/avr/5.4.0/../../../../avr/lib/avr6\libc.a(itoa_ncheck.o)
 .bss           0x00000000        0x0 c:/program files (x86)/atmel/studio/7.0/toolchain/avr8/avr8-gnu-toolchain/bin/../lib/gcc/avr/5.4.0/../../../../avr/lib/avr6\libc.a(itoa_ncheck.o)
 .text          0x00000000        0x0 c:/program files (x86)/atmel/studio/7.0/toolchain/avr8/avr8-gnu-toolchain/bin/../lib/gcc/avr/5.4.0/../../../../avr/lib/avr6\libc.a(utoa_ncheck.o)
 .data          0x00000000        0x0 c:/program files (x86)/atmel/studio/7.0/toolchain/avr8/avr8-gnu-toolchain/bin/../lib/gcc/avr/5.4.0/../../../../avr/lib/avr6\libc.a(utoa_ncheck.o)
 .bss           0x00000000        0x0 c:/program files (x86)/atmel/studio/7.0/toolchain/avr8/avr8-gnu-toolchain/bin/../lib/gcc/avr/5.4.0/../../../../avr/lib/avr6\libc.a(utoa_ncheck.o)
 .text          0x00000000        0x0 c:/program files (x86)/atmel/studio/7.0/toolchain/avr8/avr8-gnu-toolchain/bin/../lib/gcc/avr/5.4.0/../../../../avr/lib/avr6\libc.a(snprintf.o)
 .data          0x00000000        0x0 c:/program files (x86)/atmel/studio/7.0/toolchain/avr8/avr8-gnu-toolchain/bin/../lib/gcc/avr/5.4.0/../../../../avr/lib/avr6\libc.a(snprintf.o)
 .bss           0x00000000        0x0 c:/program files (x86)/atmel/studio/7.0/toolchain/avr8/avr8-gnu-toolchain/bin/../lib/gcc/avr/5.4.0/../../../../avr/lib/avr6\libc.a(snprintf.o)
 .text          0x00000000        0x0 c:/program files (x86)/atmel/studio/7.0/toolchain/avr8/avr8-gnu-toolchain/bin/../lib/gcc/avr/5.4.0/../../../../avr/lib/avr6\libc.a(vfprintf_std.o)
 .data          0x00000000        0x0 c:/program files (x86)/atmel/studio/7.0/toolchain/avr8/avr8-gnu-toolchain/bin/../lib/gcc/avr/5.4.0/../../../../avr/lib/avr6\libc.a(vfprintf_std.o)
 .bss           0x00000000        0x0 c:/program files (x86)/atmel/studio/7.0/toolchain/avr8/avr8-gnu-toolchain/bin/../lib/gcc/avr/5.4.0/../../../../avr/lib/avr6\libc.a(vfprintf_std.o)
 .text          0x00000000        0x0 c:/program files (x86)/atmel/studio/7.0/toolchain/avr8/avr8-gnu-toolchain/bin/../lib/gcc/avr/5.4.0/../../../../avr/lib/avr6\libc.a(errno.o)
 .data          0x00000000        0x0 c:/program files (x86)/atmel/studio/7.0/toolchain/avr8/avr8-gnu-toolchain/bin/../lib/gcc/avr/5.4.0/../../../../avr/lib/avr6\libc.a(errno.o)
 .bss           0x00000000        0x0 c:/program files (x86)/atmel/studio/7.0/toolchain/avr8/avr8-gnu-toolchain/bin/../lib/gcc/avr/5.4.0/../../../../avr/lib/avr6\libc.a(errno.o)
 .text          0x00000000        0x0 c:/program files (x86)/atmel/studio/7.0/toolchain/avr8/avr8-gnu-toolchain/bin/../lib/gcc/avr/5.4.0/../../../../avr/lib/avr6\libc.a(dtoa_prf.o)
 .data          0x00000000        0x0 c:/program files (x86)/atmel/studio/7.0/toolchain/avr8/avr8-gnu-toolchain/bin/../lib/gcc/avr/5.4.0/../../../../avr/lib/avr6\libc.a(dtoa_prf.o)
 .bss           0x00000000        0x0 c:/program files (x86)/atmel/studio/7.0/toolchain/avr8/avr8-gnu-toolchain/bin/../lib/gcc/avr/5.4.0/../../../../avr/lib/avr6\libc.a(dtoa_prf.o)
 .text          0x00000000        0x0 c:/program files (x86)/atmel/studio/7.0/toolchain/avr8/avr8-gnu-toolchain/bin/../lib/gcc/avr/5.4.0/../../../../avr/lib/avr6\libc.a(ftoa_engine.o)
 .data          0x00000000        0x0 c:/program files (x86)/atmel/studio/7.0/toolchain/avr8/avr8-gnu-toolchain/bin/../lib/gcc/avr/5.4.0/../../../../avr/lib/avr6\libc.a(ftoa_engine.o)
 .bss           0x00000000        0x0 c:/program files (x86)/atmel/studio/7.0/toolchain/avr8/avr8-gnu-toolchain/bin/../lib/gcc/avr/5.4.0/../../../../avr/lib/avr6\libc.a(ftoa_engine.o)
 .text          0x00000000        0x0 c:/program files (x86)/atmel/studio/7.0/toolchain/avr8/avr8-gnu-toolchain/bin/../lib/gcc/avr/5.4.0/../../../../avr/lib/avr6\libc.a(cty_isfalse.o)
 .data          0x00000000        0x0 c:/program files (x86)/atmel/studio/7.0/toolchain/avr8/avr8-gnu-toolchain/bin/../lib/gcc/avr/5.4.0/../../../../avr/lib/avr6\libc.a(cty_isfalse.o)
 .bss           0x00000000        0x0 c:/program files (x86)/atmel/studio/7.0/toolchain/avr8/avr8-gnu-toolchain/bin/../lib/gcc/avr/5.4.0/../../../../avr/lib/avr6\libc.a(cty_isfalse.o)
 .text          0x00000000        0x0 c:/program files (x86)/atmel/studio/7.0/toolchain/avr8/avr8-gnu-toolchain/bin/../lib/gcc/avr/5.4.0/../../../../avr/lib/avr6\libc.a(strnlen_P.o)
 .data          0x00000000        0x0 c:/program files (x86)/atmel/studio/7.0/toolchain/avr8/avr8-gnu-toolchain/bin/../lib/gcc/avr/5.4.0/../../../../avr/lib/avr6\libc.a(strnlen_P.o)
 .bss           0x00000000        0x0 c:/program files (x86)/atmel/studio/7.0/toolchain/avr8/avr8-gnu-toolchain/bin/../lib/gcc/avr/5.4.0/../../../../avr/lib/avr6\libc.a(strnlen_P.o)
 .text          0x00000000        0x0 c:/program files (x86)/atmel/studio/7.0/toolchain/avr8/avr8-gnu-toolchain/bin/../lib/gcc/avr/5.4.0/../../../../avr/lib/avr6\libc.a(strnlen.o)
 .data          0x00000000        0x0 c:/program files (x86)/atmel/studio/7.0/toolchain/avr8/avr8-gnu-toolchain/bin/../lib/gcc/avr/5.4.0/../../../../avr/lib/avr6\libc.a(strnlen.o)
 .bss           0x00000000        0x0 c:/program files (x86)/atmel/studio/7.0/toolchain/avr8/avr8-gnu-toolchain/bin/../lib/gcc/avr/5.4.0/../../../../avr/lib/avr6\libc.a(strnlen.o)
 .text          0x00000000        0x0 c:/program files (x86)/atmel/studio/7.0/toolchain/avr8/avr8-gnu-toolchain/bin/../lib/gcc/avr/5.4.0/../../../../avr/lib/avr6\libc.a(strrev.o)
 .data          0x00000000        0x0 c:/program files (x86)/atmel/studio/7.0/toolchain/avr8/avr8-gnu-toolchain/bin/../lib/gcc/avr/5.4.0/../../../../avr/lib/avr6\libc.a(strrev.o)
 .bss           0x00000000        0x0 c:/program files (x86)/atmel/studio/7.0/toolchain/avr8/avr8-gnu-toolchain/bin/../lib/gcc/avr/5.4.0/../../../../avr/lib/avr6\libc.a(strrev.o)
 .text          0x00000000        0x0 c:/program files (x86)/atmel/studio/7.0/toolchain/avr8/avr8-gnu-toolchain/bin/../lib/gcc/avr/5.4.0/../../../../avr/lib/avr6\libc.a(fputc.o)
 .data          0x00000000        0x0 c:/program files (x86)/atmel/studio/7.0/toolchain/avr8/avr8-gnu-toolchain/bin/../lib/gcc/avr/5.4.0/../../../../avr/lib/avr6\libc.a(fputc.o)
 .bss           0x00000000        0x0 c:/program files (x86)/atmel/studio/7.0/toolchain/avr8/avr8-gnu-toolchain/bin/../lib/gcc/avr/5.4.0/../../../../avr/lib/avr6\libc.a(fputc.o)
 .text          0x00000000        0x0 c:/program files (x86)/atmel/studio/7.0/toolchain/avr8/avr8-gnu-toolchain/bin/../lib/gcc/avr/5.4.0/../../../../avr/lib/avr6\libc.a(ultoa_invert.o)
 .data          0x00000000        0x0 c:/program files (x86)/atmel/studio/7.0/toolchain/avr8/avr8-gnu-toolchain/bin/../lib/gcc/avr/5.4.0/../../../../avr/lib/avr6\libc.a(ultoa_invert.o)
 .bss           0x00000000        0x0 c:/program files (x86)/atmel/studio/7.0/toolchain/avr8/avr8-gnu-toolchain/bin/../lib/gcc/avr/5.4.0/../../../../avr/lib/avr6\libc.a(ultoa_invert.o)
 .text          0x00000000        0x0 C:/Program Files (x86)/Atmel/Studio/7.0/Packs/Atmel/ATmega_DFP/1.2.272/gcc/dev/atmega2560/avr6\libatmega2560.a(eerd_byte.o)
 .data          0x00000000        0x0 C:/Program Files (x86)/Atmel/Studio/7.0/Packs/Atmel/ATmega_DFP/1.2.272/gcc/dev/atmega2560/avr6\libatmega2560.a(eerd_byte.o)
 .bss           0x00000000        0x0 C:/Program Files (x86)/Atmel/Studio/7.0/Packs/Atmel/ATmega_DFP/1.2.272/gcc/dev/atmega2560/avr6\libatmega2560.a(eerd_byte.o)
 .text          0x00000000        0x0 C:/Program Files (x86)/Atmel/Studio/7.0/Packs/Atmel/ATmega_DFP/1.2.272/gcc/dev/atmega2560/avr6\libatmega2560.a(eewr_byte.o)
 .data          0x00000000        0x0 C:/Program Files (x86)/Atmel/Studio/7.0/Packs/Atmel/ATmega_DFP/1.2.272/gcc/dev/atmega2560/avr6\libatmega2560.a(eewr_byte.o)
 .bss           0x00000000        0x0 C:/Program Files (x86)/Atmel/Studio/7.0/Packs/Atmel/ATmega_DFP/1.2.272/gcc/dev/atmega2560/avr6\libatmega2560.a(eewr_byte.o)
 .text          0x00000000        0x0 c:/program files (x86)/atmel/studio/7.0/toolchain/avr8/avr8-gnu-toolchain/bin/../lib/gcc/avr/5.4.0/avr6\libgcc.a(_mulshisi3.o)
 .data          0x00000000        0x0 c:/program files (x86)/atmel/studio/7.0/toolchain/avr8/avr8-gnu-toolchain/bin/../lib/gcc/avr/5.4.0/avr6\libgcc.a(_mulshisi3.o)
 .bss           0x00000000        0x0 c:/program files (x86)/atmel/studio/7.0/toolchain/avr8/avr8-gnu-toolchain/bin/../lib/gcc/avr/5.4.0/avr6\libgcc.a(_mulshisi3.o)
 .text.libgcc.mul
                0x00000000       0x10 c:/program files (x86)/atmel/studio/7.0/toolchain/avr8/avr8-gnu-toolchain/bin/../lib/gcc/avr/5.4.0/avr6\libgcc.a(_mulshisi3.o)
 .text.libgcc.div
                0x00000000        0x0 c:/program files (x86)/atmel/studio/7.0/toolchain/avr8/avr8-gnu-toolchain/bin/../lib/gcc/avr/5.4.0/avr6\libgcc.a(_mulshisi3.o)
 .text.libgcc   0x00000000        0x0 c:/program files (x86)/atmel/studio/7.0/toolchain/avr8/avr8-gnu-toolchain/bin/../lib/gcc/avr/5.4.0/avr6\libgcc.a(_mulshisi3.o)
 .text.libgcc.prologue
                0x00000000        0x0 c:/program files (x86)/atmel/studio/7.0/toolchain/avr8/avr8-gnu-toolchain/bin/../lib/gcc/avr/5.4.0/avr6\libgcc.a(_mulshisi3.o)
 .text.libgcc.builtins
                0x00000000        0x0 c:/program files (x86)/atmel/studio/7.0/toolchain/avr8/avr8-gnu-toolchain/bin/../lib/gcc/avr/5.4.0/avr6\libgcc.a(_mulshisi3.o)
 .text.libgcc.fmul
                0x00000000        0x0 c:/program files (x86)/atmel/studio/7.0/toolchain/avr8/avr8-gnu-toolchain/bin/../lib/gcc/avr/5.4.0/avr6\libgcc.a(_mulshisi3.o)
 .text.libgcc.fixed
                0x00000000        0x0 c:/program files (x86)/atmel/studio/7.0/toolchain/avr8/avr8-gnu-toolchain/bin/../lib/gcc/avr/5.4.0/avr6\libgcc.a(_mulshisi3.o)

Memory Configuration

Name             Origin             Length             Attributes
text             0x00000000         0x00100000         xr
data             0x00800200         0x0000fe00         rw !x
eeprom           0x00810000         0x00010000         rw !x
fuse             0x00820000         0x00000003         rw !x
lock             0x00830000         0x00000400         rw !x
signature        0x00840000         0x00000400         rw !x
user_signatures  0x00850000         0x00000400         rw !x
*default*        0x00000000         0xffffffff

Linker script and memory map

Address of section .data set to 0x800200
LOAD C:/Program Files (x86)/Atmel/Studio/7.0/Packs/Atmel/ATmega_DFP/1.2.272/gcc/dev/atmega2560/avr6/crtatmega2560.o
LOAD Sketch.o
START GROUP
LOAD C:\Users\Vitor\Documents\Atmel Studio\7.0\ArduinoSketch4\ArduinoSketch4\ArduinoCore\Debug\libArduinoCore.a
LOAD c:/program files (x86)/atmel/studio/7.0/toolchain/avr8/avr8-gnu-toolchain/bin/../lib/gcc/avr/5.4.0/../../../../avr/lib/avr6\libm.a
LOAD C:\Users\Vitor\Documents\Atmel Studio\7.0\ArduinoSketch4\ArduinoSketch4\ArduinoCore\Debug\libArduinoCore.a
END GROUP
LOAD c:/program files (x86)/atmel/studio/7.0/toolchain/avr8/avr8-gnu-toolchain/bin/../lib/gcc/avr/5.4.0/avr6\libgcc.a
LOAD c:/program files (x86)/atmel/studio/7.0/toolchain/avr8/avr8-gnu-toolchain/bin/../lib/gcc/avr/5.4.0/../../../../avr/lib/avr6\libm.a
START GROUP
LOAD c:/program files (x86)/atmel/studio/7.0/toolchain/avr8/avr8-gnu-toolchain/bin/../lib/gcc/avr/5.4.0/avr6\libgcc.a
LOAD c:/program files (x86)/atmel/studio/7.0/toolchain/avr8/avr8-gnu-toolchain/bin/../lib/gcc/avr/5.4.0/../../../../avr/lib/avr6\libm.a
LOAD c:/program files (x86)/atmel/studio/7.0/toolchain/avr8/avr8-gnu-toolchain/bin/../lib/gcc/avr/5.4.0/../../../../avr/lib/avr6\libc.a
LOAD C:/Program Files (x86)/Atmel/Studio/7.0/Packs/Atmel/ATmega_DFP/1.2.272/gcc/dev/atmega2560/avr6\libatmega2560.a
END GROUP
                0x00100000                __TEXT_REGION_LENGTH__ = DEFINED (__TEXT_REGION_LENGTH__)?__TEXT_REGION_LENGTH__:0x100000
                0x0000fe00                __DATA_REGION_LENGTH__ = DEFINED (__DATA_REGION_LENGTH__)?__DATA_REGION_LENGTH__:0xfe00
                0x00010000                __EEPROM_REGION_LENGTH__ = DEFINED (__EEPROM_REGION_LENGTH__)?__EEPROM_REGION_LENGTH__:0x10000
                [0x00000003]                __FUSE_REGION_LENGTH__ = DEFINED (__FUSE_REGION_LENGTH__)?__FUSE_REGION_LENGTH__:0x400
                0x00000400                __LOCK_REGION_LENGTH__ = DEFINED (__LOCK_REGION_LENGTH__)?__LOCK_REGION_LENGTH__:0x400
                0x00000400                __SIGNATURE_REGION_LENGTH__ = DEFINED (__SIGNATURE_REGION_LENGTH__)?__SIGNATURE_REGION_LENGTH__:0x400
                0x00000400                __USER_SIGNATURE_REGION_LENGTH__ = DEFINED (__USER_SIGNATURE_REGION_LENGTH__)?__USER_SIGNATURE_REGION_LENGTH__:0x400

.hash
 *(.hash)

.dynsym
 *(.dynsym)

.dynstr
 *(.dynstr)

.gnu.version
 *(.gnu.version)

.gnu.version_d
 *(.gnu.version_d)

.gnu.version_r
 *(.gnu.version_r)

.rel.init
 *(.rel.init)

.rela.init
 *(.rela.init)

.rel.text
 *(.rel.text)
 *(.rel.text.*)
 *(.rel.gnu.linkonce.t*)

.rela.text
 *(.rela.text)
 *(.rela.text.*)
 *(.rela.gnu.linkonce.t*)

.rel.fini
 *(.rel.fini)

.rela.fini
 *(.rela.fini)

.rel.rodata
 *(.rel.rodata)
 *(.rel.rodata.*)
 *(.rel.gnu.linkonce.r*)

.rela.rodata
 *(.rela.rodata)
 *(.rela.rodata.*)
 *(.rela.gnu.linkonce.r*)

.rel.data
 *(.rel.data)
 *(.rel.data.*)
 *(.rel.gnu.linkonce.d*)

.rela.data
 *(.rela.data)
 *(.rela.data.*)
 *(.rela.gnu.linkonce.d*)

.rel.ctors
 *(.rel.ctors)

.rela.ctors
 *(.rela.ctors)

.rel.dtors
 *(.rel.dtors)

.rela.dtors
 *(.rela.dtors)

.rel.got
 *(.rel.got)

.rela.got
 *(.rela.got)

.rel.bss
 *(.rel.bss)

.rela.bss
 *(.rela.bss)

.rel.plt
 *(.rel.plt)

.rela.plt
 *(.rela.plt)

.text           0x00000000     0xcdbc
 *(.vectors)
 .vectors       0x00000000       0xe4 C:/Program Files (x86)/Atmel/Studio/7.0/Packs/Atmel/ATmega_DFP/1.2.272/gcc/dev/atmega2560/avr6/crtatmega2560.o
                0x00000000                __vector_default
                0x00000000                __vectors
 *(.vectors)
 *(.progmem.gcc*)
 .progmem.gcc_sw_table.turnOffPWM
                0x000000e4       0x24 C:\Users\Vitor\Documents\Atmel Studio\7.0\ArduinoSketch4\ArduinoSketch4\ArduinoCore\Debug\libArduinoCore.a(wiring_digital.o)
 .progmem.gcc_fplib
                0x00000108       0x2d c:/program files (x86)/atmel/studio/7.0/toolchain/avr8/avr8-gnu-toolchain/bin/../lib/gcc/avr/5.4.0/../../../../avr/lib/avr6\libm.a(atan.o)
 .progmem.gcc_fplib
                0x00000135       0x1e c:/program files (x86)/atmel/studio/7.0/toolchain/avr8/avr8-gnu-toolchain/bin/../lib/gcc/avr/5.4.0/../../../../avr/lib/avr6\libm.a(fp_sinus.o)
                0x00000154                . = ALIGN (0x2)
 *fill*         0x00000153        0x1 
                0x00000154                __trampolines_start = .
 *(.trampolines)
 .trampolines   0x00000154        0x0 linker stubs
 *(.trampolines*)
                0x00000154                __trampolines_end = .
 *libprintf_flt.a:*(.progmem.data)
 *libc.a:*(.progmem.data)
 .progmem.data  0x00000154       0xfa c:/program files (x86)/atmel/studio/7.0/toolchain/avr8/avr8-gnu-toolchain/bin/../lib/gcc/avr/5.4.0/../../../../avr/lib/avr6\libc.a(ftoa_engine.o)
 *(.progmem*)
 .progmem.data._ZL7BT2_bmp
                0x0000024e        0x8 C:\Users\Vitor\Documents\Atmel Studio\7.0\ArduinoSketch4\ArduinoSketch4\ArduinoCore\Debug\libArduinoCore.a(red_beryl.o)
 .progmem.data._ZL12bat_6x16_bmp
                0x00000256       0x10 C:\Users\Vitor\Documents\Atmel Studio\7.0\ArduinoSketch4\ArduinoSketch4\ArduinoCore\Debug\libArduinoCore.a(red_beryl.o)
 .progmem.data.digital_pin_to_timer_PGM
                0x00000266       0x46 C:\Users\Vitor\Documents\Atmel Studio\7.0\ArduinoSketch4\ArduinoSketch4\ArduinoCore\Debug\libArduinoCore.a(wiring_digital.o)
                0x00000266                digital_pin_to_timer_PGM
 .progmem.data.digital_pin_to_bit_mask_PGM
                0x000002ac       0x46 C:\Users\Vitor\Documents\Atmel Studio\7.0\ArduinoSketch4\ArduinoSketch4\ArduinoCore\Debug\libArduinoCore.a(wiring_digital.o)
                0x000002ac                digital_pin_to_bit_mask_PGM
 .progmem.data.digital_pin_to_port_PGM
                0x000002f2       0x46 C:\Users\Vitor\Documents\Atmel Studio\7.0\ArduinoSketch4\ArduinoSketch4\ArduinoCore\Debug\libArduinoCore.a(wiring_digital.o)
                0x000002f2                digital_pin_to_port_PGM
 .progmem.data.port_to_input_PGM
                0x00000338       0x1a C:\Users\Vitor\Documents\Atmel Studio\7.0\ArduinoSketch4\ArduinoSketch4\ArduinoCore\Debug\libArduinoCore.a(wiring_digital.o)
                0x00000338                port_to_input_PGM
 .progmem.data.port_to_output_PGM
                0x00000352       0x1a C:\Users\Vitor\Documents\Atmel Studio\7.0\ArduinoSketch4\ArduinoSketch4\ArduinoCore\Debug\libArduinoCore.a(wiring_digital.o)
                0x00000352                port_to_output_PGM
 .progmem.data.port_to_mode_PGM
                0x0000036c       0x1a C:\Users\Vitor\Documents\Atmel Studio\7.0\ArduinoSketch4\ArduinoSketch4\ArduinoCore\Debug\libArduinoCore.a(wiring_digital.o)
                0x0000036c                port_to_mode_PGM
 .progmem.data._ZL4font
                0x00000386      0x500 C:\Users\Vitor\Documents\Atmel Studio\7.0\ArduinoSketch4\ArduinoSketch4\ArduinoCore\Debug\libArduinoCore.a(Adafruit_GFX.o)
                0x00000886                . = ALIGN (0x2)
 *(.jumptables)
 *(.jumptables*)
 *(.lowtext)
 *(.lowtext*)
                0x00000886                __ctors_start = .
 *(.ctors)
 .ctors         0x00000886        0x2 Sketch.o
 .ctors         0x00000888        0x2 C:\Users\Vitor\Documents\Atmel Studio\7.0\ArduinoSketch4\ArduinoSketch4\ArduinoCore\Debug\libArduinoCore.a(HardwareSerial0.o)
 .ctors         0x0000088a        0x2 C:\Users\Vitor\Documents\Atmel Studio\7.0\ArduinoSketch4\ArduinoSketch4\ArduinoCore\Debug\libArduinoCore.a(Wire.o)
 .ctors         0x0000088c        0x2 C:\Users\Vitor\Documents\Atmel Studio\7.0\ArduinoSketch4\ArduinoSketch4\ArduinoCore\Debug\libArduinoCore.a(HardwareSerial1.o)
                0x0000088e                __ctors_end = .
                0x0000088e                __dtors_start = .
 *(.dtors)
                0x0000088e                __dtors_end = .
 SORT(*)(.ctors)
 SORT(*)(.dtors)
 *(.init0)
 .init0         0x0000088e        0x0 C:/Program Files (x86)/Atmel/Studio/7.0/Packs/Atmel/ATmega_DFP/1.2.272/gcc/dev/atmega2560/avr6/crtatmega2560.o
                0x0000088e                __init
 *(.init0)
 *(.init1)
 *(.init1)
 *(.init2)
 .init2         0x0000088e       0x10 C:/Program Files (x86)/Atmel/Studio/7.0/Packs/Atmel/ATmega_DFP/1.2.272/gcc/dev/atmega2560/avr6/crtatmega2560.o
 *(.init2)
 *(.init3)
 *(.init3)
 *(.init4)
 .init4         0x0000089e       0x1a c:/program files (x86)/atmel/studio/7.0/toolchain/avr8/avr8-gnu-toolchain/bin/../lib/gcc/avr/5.4.0/avr6\libgcc.a(_copy_data.o)
                0x0000089e                __do_copy_data
 .init4         0x000008b8       0x10 c:/program files (x86)/atmel/studio/7.0/toolchain/avr8/avr8-gnu-toolchain/bin/../lib/gcc/avr/5.4.0/avr6\libgcc.a(_clear_bss.o)
                0x000008b8                __do_clear_bss
 *(.init4)
 *(.init5)
 *(.init5)
 *(.init6)
 .init6         0x000008c8       0x20 c:/program files (x86)/atmel/studio/7.0/toolchain/avr8/avr8-gnu-toolchain/bin/../lib/gcc/avr/5.4.0/avr6\libgcc.a(_ctors.o)
                0x000008c8                __do_global_ctors
 *(.init6)
 *(.init7)
 *(.init7)
 *(.init8)
 *(.init8)
 *(.init9)
 .init9         0x000008e8        0x6 C:/Program Files (x86)/Atmel/Studio/7.0/Packs/Atmel/ATmega_DFP/1.2.272/gcc/dev/atmega2560/avr6/crtatmega2560.o
 *(.init9)
 *(.text)
 .text          0x000008ee        0x2 C:/Program Files (x86)/Atmel/Studio/7.0/Packs/Atmel/ATmega_DFP/1.2.272/gcc/dev/atmega2560/avr6/crtatmega2560.o
                0x000008ee                __vector_38
                0x000008ee                __vector_22
                0x000008ee                __vector_28
                0x000008ee                __vector_1
                0x000008ee                __vector_32
                0x000008ee                __vector_34
                0x000008ee                __vector_24
                0x000008ee                __vector_12
                0x000008ee                __vector_55
                0x000008ee                __vector_46
                0x000008ee                __bad_interrupt
                0x000008ee                __vector_6
                0x000008ee                __vector_31
                0x000008ee                __vector_35
                0x000008ee                __vector_3
                0x000008ee                __vector_30
                0x000008ee                __vector_45
                0x000008ee                __vector_11
                0x000008ee                __vector_54
                0x000008ee                __vector_13
                0x000008ee                __vector_17
                0x000008ee                __vector_19
                0x000008ee                __vector_56
                0x000008ee                __vector_7
                0x000008ee                __vector_49
                0x000008ee                __vector_41
                0x000008ee                __vector_43
                0x000008ee                __vector_27
                0x000008ee                __vector_5
                0x000008ee                __vector_33
                0x000008ee                __vector_47
                0x000008ee                __vector_52
                0x000008ee                __vector_4
                0x000008ee                __vector_44
                0x000008ee                __vector_51
                0x000008ee                __vector_9
                0x000008ee                __vector_2
                0x000008ee                __vector_21
                0x000008ee                __vector_15
                0x000008ee                __vector_29
                0x000008ee                __vector_40
                0x000008ee                __vector_8
                0x000008ee                __vector_48
                0x000008ee                __vector_14
                0x000008ee                __vector_53
                0x000008ee                __vector_10
                0x000008ee                __vector_50
                0x000008ee                __vector_16
                0x000008ee                __vector_18
                0x000008ee                __vector_20
                0x000008ee                __vector_42
                0x000008f0                . = ALIGN (0x2)
 *(.text.*)
 .text.setup    0x000008f0       0x46 Sketch.o
                0x000008f0                setup
 .text.loop     0x00000936       0x88 Sketch.o
                0x00000936                loop
 .text.startup._GLOBAL__sub_I_rb
                0x000009be        0x8 Sketch.o
 .text._ZN14HardwareSerial9availableEv
                0x000009c6       0x18 C:\Users\Vitor\Documents\Atmel Studio\7.0\ArduinoSketch4\ArduinoSketch4\ArduinoCore\Debug\libArduinoCore.a(HardwareSerial.o)
                0x000009c6                _ZN14HardwareSerial9availableEv
 .text._ZN14HardwareSerial4peekEv
                0x000009de       0x1c C:\Users\Vitor\Documents\Atmel Studio\7.0\ArduinoSketch4\ArduinoSketch4\ArduinoCore\Debug\libArduinoCore.a(HardwareSerial.o)
                0x000009de                _ZN14HardwareSerial4peekEv
 .text._ZN14HardwareSerial4readEv
                0x000009fa       0x28 C:\Users\Vitor\Documents\Atmel Studio\7.0\ArduinoSketch4\ArduinoSketch4\ArduinoCore\Debug\libArduinoCore.a(HardwareSerial.o)
                0x000009fa                _ZN14HardwareSerial4readEv
 .text._ZN14HardwareSerial17availableForWriteEv
                0x00000a22       0x1e C:\Users\Vitor\Documents\Atmel Studio\7.0\ArduinoSketch4\ArduinoSketch4\ArduinoCore\Debug\libArduinoCore.a(HardwareSerial.o)
                0x00000a22                _ZN14HardwareSerial17availableForWriteEv
 .text._Z14serialEventRunv
                0x00000a40       0x78 C:\Users\Vitor\Documents\Atmel Studio\7.0\ArduinoSketch4\ArduinoSketch4\ArduinoCore\Debug\libArduinoCore.a(HardwareSerial.o)
                0x00000a40                _Z14serialEventRunv
 .text._ZN14HardwareSerial17_tx_udr_empty_irqEv
                0x00000ab8       0x42 C:\Users\Vitor\Documents\Atmel Studio\7.0\ArduinoSketch4\ArduinoSketch4\ArduinoCore\Debug\libArduinoCore.a(HardwareSerial.o)
                0x00000ab8                _ZN14HardwareSerial17_tx_udr_empty_irqEv
 .text._ZN14HardwareSerial5writeEh
                0x00000afa       0x8c C:\Users\Vitor\Documents\Atmel Studio\7.0\ArduinoSketch4\ArduinoSketch4\ArduinoCore\Debug\libArduinoCore.a(HardwareSerial.o)
                0x00000afa                _ZN14HardwareSerial5writeEh
 .text._ZN14HardwareSerial5flushEv
                0x00000b86       0x42 C:\Users\Vitor\Documents\Atmel Studio\7.0\ArduinoSketch4\ArduinoSketch4\ArduinoCore\Debug\libArduinoCore.a(HardwareSerial.o)
                0x00000b86                _ZN14HardwareSerial5flushEv
 .text._ZN14HardwareSerial5beginEmh
                0x00000bc8       0xca C:\Users\Vitor\Documents\Atmel Studio\7.0\ArduinoSketch4\ArduinoSketch4\ArduinoCore\Debug\libArduinoCore.a(HardwareSerial.o)
                0x00000bc8                _ZN14HardwareSerial5beginEmh
 .text._ZN14HardwareSerial3endEv
                0x00000c92       0x44 C:\Users\Vitor\Documents\Atmel Studio\7.0\ArduinoSketch4\ArduinoSketch4\ArduinoCore\Debug\libArduinoCore.a(HardwareSerial.o)
                0x00000c92                _ZN14HardwareSerial3endEv
 .text._ZN5Print17availableForWriteEv
                0x00000cd6        0x6 C:\Users\Vitor\Documents\Atmel Studio\7.0\ArduinoSketch4\ArduinoSketch4\ArduinoCore\Debug\libArduinoCore.a(HardwareSerial0.o)
                0x00000cd6                _ZN5Print17availableForWriteEv
 .text._ZN5Print5flushEv
                0x00000cdc        0x2 C:\Users\Vitor\Documents\Atmel Studio\7.0\ArduinoSketch4\ArduinoSketch4\ArduinoCore\Debug\libArduinoCore.a(HardwareSerial0.o)
                0x00000cdc                _ZN5Print5flushEv
 .text.__vector_25
                0x00000cde       0x6c C:\Users\Vitor\Documents\Atmel Studio\7.0\ArduinoSketch4\ArduinoSketch4\ArduinoCore\Debug\libArduinoCore.a(HardwareSerial0.o)
                0x00000cde                __vector_25
 .text.__vector_26
                0x00000d4a       0x52 C:\Users\Vitor\Documents\Atmel Studio\7.0\ArduinoSketch4\ArduinoSketch4\ArduinoCore\Debug\libArduinoCore.a(HardwareSerial0.o)
                0x00000d4a                __vector_26
 .text._Z17Serial0_availablev
                0x00000d9c       0x12 C:\Users\Vitor\Documents\Atmel Studio\7.0\ArduinoSketch4\ArduinoSketch4\ArduinoCore\Debug\libArduinoCore.a(HardwareSerial0.o)
                0x00000d9c                _Z17Serial0_availablev
 .text.startup._GLOBAL__sub_I___vector_25
                0x00000dae       0x5a C:\Users\Vitor\Documents\Atmel Studio\7.0\ArduinoSketch4\ArduinoSketch4\ArduinoCore\Debug\libArduinoCore.a(HardwareSerial0.o)
 .text.initVariant
                0x00000e08        0x2 C:\Users\Vitor\Documents\Atmel Studio\7.0\ArduinoSketch4\ArduinoSketch4\ArduinoCore\Debug\libArduinoCore.a(main.o)
                0x00000e08                initVariant
 .text.startup.main
                0x00000e0a       0x14 C:\Users\Vitor\Documents\Atmel Studio\7.0\ArduinoSketch4\ArduinoSketch4\ArduinoCore\Debug\libArduinoCore.a(main.o)
                0x00000e0a                main
 .text._Znwj    0x00000e1e        0x4 C:\Users\Vitor\Documents\Atmel Studio\7.0\ArduinoSketch4\ArduinoSketch4\ArduinoCore\Debug\libArduinoCore.a(new.o)
                0x00000e1e                _Znwj
 .text._Znaj    0x00000e22        0x4 C:\Users\Vitor\Documents\Atmel Studio\7.0\ArduinoSketch4\ArduinoSketch4\ArduinoCore\Debug\libArduinoCore.a(new.o)
                0x00000e22                _Znaj
 .text._ZdaPv   0x00000e26        0x4 C:\Users\Vitor\Documents\Atmel Studio\7.0\ArduinoSketch4\ArduinoSketch4\ArduinoCore\Debug\libArduinoCore.a(new.o)
                0x00000e26                _ZdaPv
 .text._ZN5Print5writeEPKhj
                0x00000e2a       0x54 C:\Users\Vitor\Documents\Atmel Studio\7.0\ArduinoSketch4\ArduinoSketch4\ArduinoCore\Debug\libArduinoCore.a(Print.o)
                0x00000e2a                _ZN5Print5writeEPKhj
 .text._ZN5Print5writeEPKc
                0x00000e7e       0x2a C:\Users\Vitor\Documents\Atmel Studio\7.0\ArduinoSketch4\ArduinoSketch4\ArduinoCore\Debug\libArduinoCore.a(Print.o)
                0x00000e7e                _ZN5Print5writeEPKc
 .text._ZN5Print5printEPKc
                0x00000ea8        0x2 C:\Users\Vitor\Documents\Atmel Studio\7.0\ArduinoSketch4\ArduinoSketch4\ArduinoCore\Debug\libArduinoCore.a(Print.o)
                0x00000ea8                _ZN5Print5printEPKc
 .text._ZN5Print5printEc
                0x00000eaa        0xe C:\Users\Vitor\Documents\Atmel Studio\7.0\ArduinoSketch4\ArduinoSketch4\ArduinoCore\Debug\libArduinoCore.a(Print.o)
                0x00000eaa                _ZN5Print5printEc
 .text._ZN5Print7printlnEv
                0x00000eb8        0x6 C:\Users\Vitor\Documents\Atmel Studio\7.0\ArduinoSketch4\ArduinoSketch4\ArduinoCore\Debug\libArduinoCore.a(Print.o)
                0x00000eb8                _ZN5Print7printlnEv
 .text._ZN5Print7printlnEPKc
                0x00000ebe       0x20 C:\Users\Vitor\Documents\Atmel Studio\7.0\ArduinoSketch4\ArduinoSketch4\ArduinoCore\Debug\libArduinoCore.a(Print.o)
                0x00000ebe                _ZN5Print7printlnEPKc
 .text._ZN5Print11printNumberEmh
                0x00000ede       0x90 C:\Users\Vitor\Documents\Atmel Studio\7.0\ArduinoSketch4\ArduinoSketch4\ArduinoCore\Debug\libArduinoCore.a(Print.o)
                0x00000ede                _ZN5Print11printNumberEmh
 .text._ZN5Print5printEmi
                0x00000f6e       0x18 C:\Users\Vitor\Documents\Atmel Studio\7.0\ArduinoSketch4\ArduinoSketch4\ArduinoCore\Debug\libArduinoCore.a(Print.o)
                0x00000f6e                _ZN5Print5printEmi
 .text._ZN5Print5printEhi
                0x00000f86        0xc C:\Users\Vitor\Documents\Atmel Studio\7.0\ArduinoSketch4\ArduinoSketch4\ArduinoCore\Debug\libArduinoCore.a(Print.o)
                0x00000f86                _ZN5Print5printEhi
 .text._ZN5Print7printlnEhi
                0x00000f92       0x20 C:\Users\Vitor\Documents\Atmel Studio\7.0\ArduinoSketch4\ArduinoSketch4\ArduinoCore\Debug\libArduinoCore.a(Print.o)
                0x00000f92                _ZN5Print7printlnEhi
 .text._ZN5Print5printEji
                0x00000fb2        0xa C:\Users\Vitor\Documents\Atmel Studio\7.0\ArduinoSketch4\ArduinoSketch4\ArduinoCore\Debug\libArduinoCore.a(Print.o)
                0x00000fb2                _ZN5Print5printEji
 .text._ZN5Print7printlnEji
                0x00000fbc       0x20 C:\Users\Vitor\Documents\Atmel Studio\7.0\ArduinoSketch4\ArduinoSketch4\ArduinoCore\Debug\libArduinoCore.a(Print.o)
                0x00000fbc                _ZN5Print7printlnEji
 .text._ZN5Print5printEli
                0x00000fdc       0x8a C:\Users\Vitor\Documents\Atmel Studio\7.0\ArduinoSketch4\ArduinoSketch4\ArduinoCore\Debug\libArduinoCore.a(Print.o)
                0x00000fdc                _ZN5Print5printEli
 .text._ZN5Print5printEii
                0x00001066        0xc C:\Users\Vitor\Documents\Atmel Studio\7.0\ArduinoSketch4\ArduinoSketch4\ArduinoCore\Debug\libArduinoCore.a(Print.o)
                0x00001066                _ZN5Print5printEii
 .text._ZN5Print7printlnEii
                0x00001072       0x20 C:\Users\Vitor\Documents\Atmel Studio\7.0\ArduinoSketch4\ArduinoSketch4\ArduinoCore\Debug\libArduinoCore.a(Print.o)
                0x00001072                _ZN5Print7printlnEii
 .text._ZN5Print7printlnEli
                0x00001092       0x20 C:\Users\Vitor\Documents\Atmel Studio\7.0\ArduinoSketch4\ArduinoSketch4\ArduinoCore\Debug\libArduinoCore.a(Print.o)
                0x00001092                _ZN5Print7printlnEli
 .text._ZN5Print10printFloatEdh
                0x000010b2      0x1ac C:\Users\Vitor\Documents\Atmel Studio\7.0\ArduinoSketch4\ArduinoSketch4\ArduinoCore\Debug\libArduinoCore.a(Print.o)
                0x000010b2                _ZN5Print10printFloatEdh
 .text._ZN5Print5printEdi
                0x0000125e        0x2 C:\Users\Vitor\Documents\Atmel Studio\7.0\ArduinoSketch4\ArduinoSketch4\ArduinoCore\Debug\libArduinoCore.a(Print.o)
                0x0000125e                _ZN5Print5printEdi
 .text._ZN5Print7printlnEdi
                0x00001260       0x20 C:\Users\Vitor\Documents\Atmel Studio\7.0\ArduinoSketch4\ArduinoSketch4\ArduinoCore\Debug\libArduinoCore.a(Print.o)
                0x00001260                _ZN5Print7printlnEdi
 .text.__vector_23
                0x00001280       0x94 C:\Users\Vitor\Documents\Atmel Studio\7.0\ArduinoSketch4\ArduinoSketch4\ArduinoCore\Debug\libArduinoCore.a(wiring.o)
                0x00001280                __vector_23
 .text.millis   0x00001314       0x18 C:\Users\Vitor\Documents\Atmel Studio\7.0\ArduinoSketch4\ArduinoSketch4\ArduinoCore\Debug\libArduinoCore.a(wiring.o)
                0x00001314                millis
 .text.micros   0x0000132c       0x4a C:\Users\Vitor\Documents\Atmel Studio\7.0\ArduinoSketch4\ArduinoSketch4\ArduinoCore\Debug\libArduinoCore.a(wiring.o)
                0x0000132c                micros
 .text.delay    0x00001376       0x74 C:\Users\Vitor\Documents\Atmel Studio\7.0\ArduinoSketch4\ArduinoSketch4\ArduinoCore\Debug\libArduinoCore.a(wiring.o)
                0x00001376                delay
 .text.init     0x000013ea       0xc4 C:\Users\Vitor\Documents\Atmel Studio\7.0\ArduinoSketch4\ArduinoSketch4\ArduinoCore\Debug\libArduinoCore.a(wiring.o)
                0x000013ea                init
 .text._ZN16Adafruit_SSD130613drawFastHLineEiiij
                0x000014ae      0x2b6 C:\Users\Vitor\Documents\Atmel Studio\7.0\ArduinoSketch4\ArduinoSketch4\ArduinoCore\Debug\libArduinoCore.a(Adafruit_SSD1306.o)
                0x000014ae                _ZN16Adafruit_SSD130613drawFastHLineEiiij
 .text._ZN16Adafruit_SSD130613drawFastVLineEiiij
                0x00001764      0x2b4 C:\Users\Vitor\Documents\Atmel Studio\7.0\ArduinoSketch4\ArduinoSketch4\ArduinoCore\Debug\libArduinoCore.a(Adafruit_SSD1306.o)
                0x00001764                _ZN16Adafruit_SSD130613drawFastVLineEiiij
 .text._ZN16Adafruit_SSD13069drawPixelEiij
                0x00001a18      0x16e C:\Users\Vitor\Documents\Atmel Studio\7.0\ArduinoSketch4\ArduinoSketch4\ArduinoCore\Debug\libArduinoCore.a(Adafruit_SSD1306.o)
                0x00001a18                _ZN16Adafruit_SSD13069drawPixelEiij
 .text._ZN16Adafruit_SSD1306C2Ea
                0x00001b86       0x32 C:\Users\Vitor\Documents\Atmel Studio\7.0\ArduinoSketch4\ArduinoSketch4\ArduinoCore\Debug\libArduinoCore.a(Adafruit_SSD1306.o)
                0x00001b86                _ZN16Adafruit_SSD1306C2Ea
                0x00001b86                _ZN16Adafruit_SSD1306C1Ea
 .text._ZN16Adafruit_SSD130612clearDisplayEv
                0x00001bb8       0x16 C:\Users\Vitor\Documents\Atmel Studio\7.0\ArduinoSketch4\ArduinoSketch4\ArduinoCore\Debug\libArduinoCore.a(Adafruit_SSD1306.o)
                0x00001bb8                _ZN16Adafruit_SSD130612clearDisplayEv
 .text._ZN16Adafruit_SSD130612fastSPIwriteEh
                0x00001bce       0x5a C:\Users\Vitor\Documents\Atmel Studio\7.0\ArduinoSketch4\ArduinoSketch4\ArduinoCore\Debug\libArduinoCore.a(Adafruit_SSD1306.o)
                0x00001bce                _ZN16Adafruit_SSD130612fastSPIwriteEh
 .text._ZN16Adafruit_SSD130615ssd1306_commandEh
                0x00001c28       0x82 C:\Users\Vitor\Documents\Atmel Studio\7.0\ArduinoSketch4\ArduinoSketch4\ArduinoCore\Debug\libArduinoCore.a(Adafruit_SSD1306.o)
                0x00001c28                _ZN16Adafruit_SSD130615ssd1306_commandEh
 .text._ZN16Adafruit_SSD13065beginEhhb
                0x00001caa      0x22a C:\Users\Vitor\Documents\Atmel Studio\7.0\ArduinoSketch4\ArduinoSketch4\ArduinoCore\Debug\libArduinoCore.a(Adafruit_SSD1306.o)
                0x00001caa                _ZN16Adafruit_SSD13065beginEhhb
 .text._ZN16Adafruit_SSD13067displayEv
                0x00001ed4      0x104 C:\Users\Vitor\Documents\Atmel Studio\7.0\ArduinoSketch4\ArduinoSketch4\ArduinoCore\Debug\libArduinoCore.a(Adafruit_SSD1306.o)
                0x00001ed4                _ZN16Adafruit_SSD13067displayEv
 .text._ZN11EEPROMClass4readEi.isra.0
                0x00001fd8        0x4 C:\Users\Vitor\Documents\Atmel Studio\7.0\ArduinoSketch4\ArduinoSketch4\ArduinoCore\Debug\libArduinoCore.a(red_beryl.o)
 .text._ZN11EEPROMClass5writeEih.isra.1
                0x00001fdc        0x4 C:\Users\Vitor\Documents\Atmel Studio\7.0\ArduinoSketch4\ArduinoSketch4\ArduinoCore\Debug\libArduinoCore.a(red_beryl.o)
 .text._ZN11EEPROMClass3getI8leiturasEERT_iS3_.isra.5
                0x00001fe0       0x4c C:\Users\Vitor\Documents\Atmel Studio\7.0\ArduinoSketch4\ArduinoSketch4\ArduinoCore\Debug\libArduinoCore.a(red_beryl.o)
 .text._ZN11EEPROMClass3putI8leiturasEERKT_iS4_.isra.4
                0x0000202c       0x56 C:\Users\Vitor\Documents\Atmel Studio\7.0\ArduinoSketch4\ArduinoSketch4\ArduinoCore\Debug\libArduinoCore.a(red_beryl.o)
 .text._ZN9red_beryl13getBatteryPctEv
                0x00002082       0x62 C:\Users\Vitor\Documents\Atmel Studio\7.0\ArduinoSketch4\ArduinoSketch4\ArduinoCore\Debug\libArduinoCore.a(red_beryl.o)
                0x00002082                _ZN9red_beryl13getBatteryPctEv
 .text._ZN9red_beryl9menu_sincEv
                0x000020e4       0x90 C:\Users\Vitor\Documents\Atmel Studio\7.0\ArduinoSketch4\ArduinoSketch4\ArduinoCore\Debug\libArduinoCore.a(red_beryl.o)
                0x000020e4                _ZN9red_beryl9menu_sincEv
 .text._ZN9red_beryl10menu_rangeEv
                0x00002174      0x6e0 C:\Users\Vitor\Documents\Atmel Studio\7.0\ArduinoSketch4\ArduinoSketch4\ArduinoCore\Debug\libArduinoCore.a(red_beryl.o)
                0x00002174                _ZN9red_beryl10menu_rangeEv
 .text._ZN9red_beryl10menu_pointEv
                0x00002854      0x19c C:\Users\Vitor\Documents\Atmel Studio\7.0\ArduinoSketch4\ArduinoSketch4\ArduinoCore\Debug\libArduinoCore.a(red_beryl.o)
                0x00002854                _ZN9red_beryl10menu_pointEv
 .text._ZN9red_beryl10menu_avisoEv
                0x000029f0      0x26c C:\Users\Vitor\Documents\Atmel Studio\7.0\ArduinoSketch4\ArduinoSketch4\ArduinoCore\Debug\libArduinoCore.a(red_beryl.o)
                0x000029f0                _ZN9red_beryl10menu_avisoEv
 .text._ZN9red_beryl14menu_historicoEv
                0x00002c5c      0x4e0 C:\Users\Vitor\Documents\Atmel Studio\7.0\ArduinoSketch4\ArduinoSketch4\ArduinoCore\Debug\libArduinoCore.a(red_beryl.o)
                0x00002c5c                _ZN9red_beryl14menu_historicoEv
 .text._ZN9red_beryl7relogioEv
                0x0000313c      0x87e C:\Users\Vitor\Documents\Atmel Studio\7.0\ArduinoSketch4\ArduinoSketch4\ArduinoCore\Debug\libArduinoCore.a(red_beryl.o)
                0x0000313c                _ZN9red_beryl7relogioEv
 .text._ZN9red_beryl8getPointEv
                0x000039ba        0x8 C:\Users\Vitor\Documents\Atmel Studio\7.0\ArduinoSketch4\ArduinoSketch4\ArduinoCore\Debug\libArduinoCore.a(red_beryl.o)
                0x000039ba                _ZN9red_beryl8getPointEv
 .text._ZN9red_beryl14imprimeEscolhaEii8leiturasb
                0x000039c2      0x114 C:\Users\Vitor\Documents\Atmel Studio\7.0\ArduinoSketch4\ArduinoSketch4\ArduinoCore\Debug\libArduinoCore.a(red_beryl.o)
                0x000039c2                _ZN9red_beryl14imprimeEscolhaEii8leiturasb
 .text._ZN9red_beryl10menuOptionEPKcib
                0x00003ad6       0x56 C:\Users\Vitor\Documents\Atmel Studio\7.0\ArduinoSketch4\ArduinoSketch4\ArduinoCore\Debug\libArduinoCore.a(red_beryl.o)
                0x00003ad6                _ZN9red_beryl10menuOptionEPKcib
 .text._ZN9red_beryl11menu_ajusteEv
                0x00003b2c      0x5f6 C:\Users\Vitor\Documents\Atmel Studio\7.0\ArduinoSketch4\ArduinoSketch4\ArduinoCore\Debug\libArduinoCore.a(red_beryl.o)
                0x00003b2c                _ZN9red_beryl11menu_ajusteEv
 .text._ZN9red_beryl8upperBarEv
                0x00004122      0x382 C:\Users\Vitor\Documents\Atmel Studio\7.0\ArduinoSketch4\ArduinoSketch4\ArduinoCore\Debug\libArduinoCore.a(red_beryl.o)
                0x00004122                _ZN9red_beryl8upperBarEv
 .text._ZN9red_beryl7warningEPKc
                0x000044a4      0x11e C:\Users\Vitor\Documents\Atmel Studio\7.0\ArduinoSketch4\ArduinoSketch4\ArduinoCore\Debug\libArduinoCore.a(red_beryl.o)
                0x000044a4                _ZN9red_beryl7warningEPKc
 .text._ZN9red_beryl11adResetTestEv
                0x000045c2       0x82 C:\Users\Vitor\Documents\Atmel Studio\7.0\ArduinoSketch4\ArduinoSketch4\ArduinoCore\Debug\libArduinoCore.a(red_beryl.o)
                0x000045c2                _ZN9red_beryl11adResetTestEv
 .text._ZN9red_berylC2Ev
                0x00004644      0x2ac C:\Users\Vitor\Documents\Atmel Studio\7.0\ArduinoSketch4\ArduinoSketch4\ArduinoCore\Debug\libArduinoCore.a(red_beryl.o)
                0x00004644                _ZN9red_berylC2Ev
                0x00004644                _ZN9red_berylC1Ev
 .text._ZN9red_beryl9checarPinEv
                0x000048f0      0x1b8 C:\Users\Vitor\Documents\Atmel Studio\7.0\ArduinoSketch4\ArduinoSketch4\ArduinoCore\Debug\libArduinoCore.a(red_beryl.o)
                0x000048f0                _ZN9red_beryl9checarPinEv
 .text._ZN9red_beryl17notificationTimerEb
                0x00004aa8      0x1c6 C:\Users\Vitor\Documents\Atmel Studio\7.0\ArduinoSketch4\ArduinoSketch4\ArduinoCore\Debug\libArduinoCore.a(red_beryl.o)
                0x00004aa8                _ZN9red_beryl17notificationTimerEb
 .text._ZN9red_beryl13deletaLeituraEi
                0x00004c6e      0x182 C:\Users\Vitor\Documents\Atmel Studio\7.0\ArduinoSketch4\ArduinoSketch4\ArduinoCore\Debug\libArduinoCore.a(red_beryl.o)
                0x00004c6e                _ZN9red_beryl13deletaLeituraEi
 .text._ZN9red_beryl12notificationEv
                0x00004df0       0xe8 C:\Users\Vitor\Documents\Atmel Studio\7.0\ArduinoSketch4\ArduinoSketch4\ArduinoCore\Debug\libArduinoCore.a(red_beryl.o)
                0x00004df0                _ZN9red_beryl12notificationEv
 .text._ZN9red_beryl7warningEPKcS1_
                0x00004ed8      0x196 C:\Users\Vitor\Documents\Atmel Studio\7.0\ArduinoSketch4\ArduinoSketch4\ArduinoCore\Debug\libArduinoCore.a(red_beryl.o)
                0x00004ed8                _ZN9red_beryl7warningEPKcS1_
 .text._ZN9red_beryl9scrollBarEi
                0x0000506e      0x130 C:\Users\Vitor\Documents\Atmel Studio\7.0\ArduinoSketch4\ArduinoSketch4\ArduinoCore\Debug\libArduinoCore.a(red_beryl.o)
                0x0000506e                _ZN9red_beryl9scrollBarEi
 .text._ZN9red_beryl9historicoEv
                0x0000519e      0xada C:\Users\Vitor\Documents\Atmel Studio\7.0\ArduinoSketch4\ArduinoSketch4\ArduinoCore\Debug\libArduinoCore.a(red_beryl.o)
                0x0000519e                _ZN9red_beryl9historicoEv
 .text._ZN9red_beryl12menu_leituraEv
                0x00005c78      0x8ae C:\Users\Vitor\Documents\Atmel Studio\7.0\ArduinoSketch4\ArduinoSketch4\ArduinoCore\Debug\libArduinoCore.a(red_beryl.o)
                0x00005c78                _ZN9red_beryl12menu_leituraEv
 .text._ZN9red_beryl4menuEv
                0x00006526      0x216 C:\Users\Vitor\Documents\Atmel Studio\7.0\ArduinoSketch4\ArduinoSketch4\ArduinoCore\Debug\libArduinoCore.a(red_beryl.o)
                0x00006526                _ZN9red_beryl4menuEv
 .text._ZN11red_crystalC2Ev
                0x0000673c        0xc C:\Users\Vitor\Documents\Atmel Studio\7.0\ArduinoSketch4\ArduinoSketch4\ArduinoCore\Debug\libArduinoCore.a(red_crystal.o)
                0x0000673c                _ZN11red_crystalC2Ev
                0x0000673c                _ZN11red_crystalC1Ev
 .text._ZN11red_crystal5resetEv
                0x00006748       0x1e C:\Users\Vitor\Documents\Atmel Studio\7.0\ArduinoSketch4\ArduinoSketch4\ArduinoCore\Debug\libArduinoCore.a(red_crystal.o)
                0x00006748                _ZN11red_crystal5resetEv
 .text._ZN11red_crystal13initialConfigEv
                0x00006766       0xe2 C:\Users\Vitor\Documents\Atmel Studio\7.0\ArduinoSketch4\ArduinoSketch4\ArduinoCore\Debug\libArduinoCore.a(red_crystal.o)
                0x00006766                _ZN11red_crystal13initialConfigEv
 .text._ZN11red_crystal4initEv
                0x00006848       0x94 C:\Users\Vitor\Documents\Atmel Studio\7.0\ArduinoSketch4\ArduinoSketch4\ArduinoCore\Debug\libArduinoCore.a(red_crystal.o)
                0x00006848                _ZN11red_crystal4initEv
 .text._ZN11red_crystal10configurarEl
                0x000068dc      0x218 C:\Users\Vitor\Documents\Atmel Studio\7.0\ArduinoSketch4\ArduinoSketch4\ArduinoCore\Debug\libArduinoCore.a(red_crystal.o)
                0x000068dc                _ZN11red_crystal10configurarEl
 .text._ZN11red_crystal5lerADEiR8leituras
                0x00006af4      0x74a C:\Users\Vitor\Documents\Atmel Studio\7.0\ArduinoSketch4\ArduinoSketch4\ArduinoCore\Debug\libArduinoCore.a(red_crystal.o)
                0x00006af4                _ZN11red_crystal5lerADEiR8leituras
 .text._ZN11red_crystal11temperaturaEv
                0x0000723e        0x4 C:\Users\Vitor\Documents\Atmel Studio\7.0\ArduinoSketch4\ArduinoSketch4\ArduinoCore\Debug\libArduinoCore.a(red_crystal.o)
                0x0000723e                _ZN11red_crystal11temperaturaEv
 .text._ZN11red_crystal8setRangeEi
                0x00007242       0x1e C:\Users\Vitor\Documents\Atmel Studio\7.0\ArduinoSketch4\ArduinoSketch4\ArduinoCore\Debug\libArduinoCore.a(red_crystal.o)
                0x00007242                _ZN11red_crystal8setRangeEi
 .text._ZN11red_crystal8getRangeEv
                0x00007260        0xc C:\Users\Vitor\Documents\Atmel Studio\7.0\ArduinoSketch4\ArduinoSketch4\ArduinoCore\Debug\libArduinoCore.a(red_crystal.o)
                0x00007260                _ZN11red_crystal8getRangeEv
 .text._ZN11EEPROMClass5writeEih.isra.1
                0x0000726c        0x4 C:\Users\Vitor\Documents\Atmel Studio\7.0\ArduinoSketch4\ArduinoSketch4\ArduinoCore\Debug\libArduinoCore.a(red_fang.o)
 .text._ZN11EEPROMClass4readEi.isra.0.constprop.5
                0x00007270        0x8 C:\Users\Vitor\Documents\Atmel Studio\7.0\ArduinoSketch4\ArduinoSketch4\ArduinoCore\Debug\libArduinoCore.a(red_fang.o)
 .text._ZN11EEPROMClass3getI8leiturasEERT_iS3_.isra.4
                0x00007278       0x4c C:\Users\Vitor\Documents\Atmel Studio\7.0\ArduinoSketch4\ArduinoSketch4\ArduinoCore\Debug\libArduinoCore.a(red_fang.o)
 .text._ZN11EEPROMClass3putI8leiturasEERKT_iS4_.isra.3
                0x000072c4       0x56 C:\Users\Vitor\Documents\Atmel Studio\7.0\ArduinoSketch4\ArduinoSketch4\ArduinoCore\Debug\libArduinoCore.a(red_fang.o)
 .text._ZN8red_fangC2Ev
                0x0000731a       0x5e C:\Users\Vitor\Documents\Atmel Studio\7.0\ArduinoSketch4\ArduinoSketch4\ArduinoCore\Debug\libArduinoCore.a(red_fang.o)
                0x0000731a                _ZN8red_fangC2Ev
                0x0000731a                _ZN8red_fangC1Ev
 .text._ZN8red_fang12serialEnviarEPc
                0x00007378       0x82 C:\Users\Vitor\Documents\Atmel Studio\7.0\ArduinoSketch4\ArduinoSketch4\ArduinoCore\Debug\libArduinoCore.a(red_fang.o)
                0x00007378                _ZN8red_fang12serialEnviarEPc
 .text._ZN8red_fang13deletaLeituraEi
                0x000073fa      0x17e C:\Users\Vitor\Documents\Atmel Studio\7.0\ArduinoSketch4\ArduinoSketch4\ArduinoCore\Debug\libArduinoCore.a(red_fang.o)
                0x000073fa                _ZN8red_fang13deletaLeituraEi
 .text._ZN8red_fang13serialLeituraE8leiturasi
                0x00007578      0x306 C:\Users\Vitor\Documents\Atmel Studio\7.0\ArduinoSketch4\ArduinoSketch4\ArduinoCore\Debug\libArduinoCore.a(red_fang.o)
                0x00007578                _ZN8red_fang13serialLeituraE8leiturasi
 .text._ZN8red_fang10getComplexE8leiturasi
                0x0000787e      0x3da C:\Users\Vitor\Documents\Atmel Studio\7.0\ArduinoSketch4\ArduinoSketch4\ArduinoCore\Debug\libArduinoCore.a(red_fang.o)
                0x0000787e                _ZN8red_fang10getComplexE8leiturasi
 .text._ZN8red_fang3getEib
                0x00007c58      0x2d6 C:\Users\Vitor\Documents\Atmel Studio\7.0\ArduinoSketch4\ArduinoSketch4\ArduinoCore\Debug\libArduinoCore.a(red_fang.o)
                0x00007c58                _ZN8red_fang3getEib
 .text._ZN8red_fang11isBeingUsedEv
                0x00007f2e        0x6 C:\Users\Vitor\Documents\Atmel Studio\7.0\ArduinoSketch4\ArduinoSketch4\ArduinoCore\Debug\libArduinoCore.a(red_fang.o)
                0x00007f2e                _ZN8red_fang11isBeingUsedEv
 .text._ZN8red_fang12check_stringEPc
                0x00007f34      0xa84 C:\Users\Vitor\Documents\Atmel Studio\7.0\ArduinoSketch4\ArduinoSketch4\ArduinoCore\Debug\libArduinoCore.a(red_fang.o)
                0x00007f34                _ZN8red_fang12check_stringEPc
 .text._ZN8red_fang10ler_serialEv
                0x000089b8      0x34c C:\Users\Vitor\Documents\Atmel Studio\7.0\ArduinoSketch4\ArduinoSketch4\ArduinoCore\Debug\libArduinoCore.a(red_fang.o)
                0x000089b8                _ZN8red_fang10ler_serialEv
 .text._ZN10red_quartzC2Ev
                0x00008d04       0x12 C:\Users\Vitor\Documents\Atmel Studio\7.0\ArduinoSketch4\ArduinoSketch4\ArduinoCore\Debug\libArduinoCore.a(red_quartz.o)
                0x00008d04                _ZN10red_quartzC2Ev
                0x00008d04                _ZN10red_quartzC1Ev
 .text._ZN10red_quartz4initEv
                0x00008d16       0x9a C:\Users\Vitor\Documents\Atmel Studio\7.0\ArduinoSketch4\ArduinoSketch4\ArduinoCore\Debug\libArduinoCore.a(red_quartz.o)
                0x00008d16                _ZN10red_quartz4initEv
 .text._ZN10red_quartz6minutoEv
                0x00008db0        0x8 C:\Users\Vitor\Documents\Atmel Studio\7.0\ArduinoSketch4\ArduinoSketch4\ArduinoCore\Debug\libArduinoCore.a(red_quartz.o)
                0x00008db0                _ZN10red_quartz6minutoEv
 .text._ZN10red_quartz4horaEv
                0x00008db8        0x8 C:\Users\Vitor\Documents\Atmel Studio\7.0\ArduinoSketch4\ArduinoSketch4\ArduinoCore\Debug\libArduinoCore.a(red_quartz.o)
                0x00008db8                _ZN10red_quartz4horaEv
 .text._ZN10red_quartz3diaEv
                0x00008dc0        0x8 C:\Users\Vitor\Documents\Atmel Studio\7.0\ArduinoSketch4\ArduinoSketch4\ArduinoCore\Debug\libArduinoCore.a(red_quartz.o)
                0x00008dc0                _ZN10red_quartz3diaEv
 .text._ZN10red_quartz3mesEv
                0x00008dc8        0x8 C:\Users\Vitor\Documents\Atmel Studio\7.0\ArduinoSketch4\ArduinoSketch4\ArduinoCore\Debug\libArduinoCore.a(red_quartz.o)
                0x00008dc8                _ZN10red_quartz3mesEv
 .text._ZN10red_quartz3anoEv
                0x00008dd0        0x8 C:\Users\Vitor\Documents\Atmel Studio\7.0\ArduinoSketch4\ArduinoSketch4\ArduinoCore\Debug\libArduinoCore.a(red_quartz.o)
                0x00008dd0                _ZN10red_quartz3anoEv
 .text._ZN10red_quartz9data_horaEb
                0x00008dd8      0x1ba C:\Users\Vitor\Documents\Atmel Studio\7.0\ArduinoSketch4\ArduinoSketch4\ArduinoCore\Debug\libArduinoCore.a(red_quartz.o)
                0x00008dd8                _ZN10red_quartz9data_horaEb
 .text._ZN10red_quartz9checkTimeEv
                0x00008f92       0x8e C:\Users\Vitor\Documents\Atmel Studio\7.0\ArduinoSketch4\ArduinoSketch4\ArduinoCore\Debug\libArduinoCore.a(red_quartz.o)
                0x00008f92                _ZN10red_quartz9checkTimeEv
 .text._ZN10red_quartz11set_segundoEi
                0x00009020       0x14 C:\Users\Vitor\Documents\Atmel Studio\7.0\ArduinoSketch4\ArduinoSketch4\ArduinoCore\Debug\libArduinoCore.a(red_quartz.o)
                0x00009020                _ZN10red_quartz11set_segundoEi
 .text._ZN10red_quartz10set_minutoEi
                0x00009034       0x14 C:\Users\Vitor\Documents\Atmel Studio\7.0\ArduinoSketch4\ArduinoSketch4\ArduinoCore\Debug\libArduinoCore.a(red_quartz.o)
                0x00009034                _ZN10red_quartz10set_minutoEi
 .text._ZN10red_quartz8set_horaEi
                0x00009048       0x14 C:\Users\Vitor\Documents\Atmel Studio\7.0\ArduinoSketch4\ArduinoSketch4\ArduinoCore\Debug\libArduinoCore.a(red_quartz.o)
                0x00009048                _ZN10red_quartz8set_horaEi
 .text._ZN10red_quartz7set_mesEi
                0x0000905c       0x1a C:\Users\Vitor\Documents\Atmel Studio\7.0\ArduinoSketch4\ArduinoSketch4\ArduinoCore\Debug\libArduinoCore.a(red_quartz.o)
                0x0000905c                _ZN10red_quartz7set_mesEi
 .text._ZN10red_quartz7set_anoEi
                0x00009076       0x12 C:\Users\Vitor\Documents\Atmel Studio\7.0\ArduinoSketch4\ArduinoSketch4\ArduinoCore\Debug\libArduinoCore.a(red_quartz.o)
                0x00009076                _ZN10red_quartz7set_anoEi
 .text._ZN10red_quartz13testa_segundoEi
                0x00009088        0xc C:\Users\Vitor\Documents\Atmel Studio\7.0\ArduinoSketch4\ArduinoSketch4\ArduinoCore\Debug\libArduinoCore.a(red_quartz.o)
                0x00009088                _ZN10red_quartz13testa_segundoEi
 .text._ZN10red_quartz12testa_minutoEi
                0x00009094        0xc C:\Users\Vitor\Documents\Atmel Studio\7.0\ArduinoSketch4\ArduinoSketch4\ArduinoCore\Debug\libArduinoCore.a(red_quartz.o)
                0x00009094                _ZN10red_quartz12testa_minutoEi
 .text._ZN10red_quartz10testa_horaEi
                0x000090a0        0xc C:\Users\Vitor\Documents\Atmel Studio\7.0\ArduinoSketch4\ArduinoSketch4\ArduinoCore\Debug\libArduinoCore.a(red_quartz.o)
                0x000090a0                _ZN10red_quartz10testa_horaEi
 .text._ZN10red_quartz9testa_diaEii
                0x000090ac       0x30 C:\Users\Vitor\Documents\Atmel Studio\7.0\ArduinoSketch4\ArduinoSketch4\ArduinoCore\Debug\libArduinoCore.a(red_quartz.o)
                0x000090ac                _ZN10red_quartz9testa_diaEii
 .text._ZN10red_quartz7set_diaEii
                0x000090dc       0x2a C:\Users\Vitor\Documents\Atmel Studio\7.0\ArduinoSketch4\ArduinoSketch4\ArduinoCore\Debug\libArduinoCore.a(red_quartz.o)
                0x000090dc                _ZN10red_quartz7set_diaEii
 .text._ZN10red_quartz9testa_mesEi
                0x00009106       0x10 C:\Users\Vitor\Documents\Atmel Studio\7.0\ArduinoSketch4\ArduinoSketch4\ArduinoCore\Debug\libArduinoCore.a(red_quartz.o)
                0x00009106                _ZN10red_quartz9testa_mesEi
 .text._ZN10red_quartz9testa_anoEi
                0x00009116        0xc C:\Users\Vitor\Documents\Atmel Studio\7.0\ArduinoSketch4\ArduinoSketch4\ArduinoCore\Debug\libArduinoCore.a(red_quartz.o)
                0x00009116                _ZN10red_quartz9testa_anoEi
 .text._ZN8SPIClass5beginEv
                0x00009122       0x64 C:\Users\Vitor\Documents\Atmel Studio\7.0\ArduinoSketch4\ArduinoSketch4\ArduinoCore\Debug\libArduinoCore.a(SPI.o)
                0x00009122                _ZN8SPIClass5beginEv
 .text._ZN7TwoWire9availableEv
                0x00009186       0x10 C:\Users\Vitor\Documents\Atmel Studio\7.0\ArduinoSketch4\ArduinoSketch4\ArduinoCore\Debug\libArduinoCore.a(Wire.o)
                0x00009186                _ZN7TwoWire9availableEv
 .text._ZN7TwoWire4readEv
                0x00009196       0x28 C:\Users\Vitor\Documents\Atmel Studio\7.0\ArduinoSketch4\ArduinoSketch4\ArduinoCore\Debug\libArduinoCore.a(Wire.o)
                0x00009196                _ZN7TwoWire4readEv
 .text._ZN7TwoWire4peekEv
                0x000091be       0x1e C:\Users\Vitor\Documents\Atmel Studio\7.0\ArduinoSketch4\ArduinoSketch4\ArduinoCore\Debug\libArduinoCore.a(Wire.o)
                0x000091be                _ZN7TwoWire4peekEv
 .text._ZN7TwoWire5flushEv
                0x000091dc        0x2 C:\Users\Vitor\Documents\Atmel Studio\7.0\ArduinoSketch4\ArduinoSketch4\ArduinoCore\Debug\libArduinoCore.a(Wire.o)
                0x000091dc                _ZN7TwoWire5flushEv
 .text._ZN7TwoWire5writeEPKhj
                0x000091de       0x5a C:\Users\Vitor\Documents\Atmel Studio\7.0\ArduinoSketch4\ArduinoSketch4\ArduinoCore\Debug\libArduinoCore.a(Wire.o)
                0x000091de                _ZN7TwoWire5writeEPKhj
 .text._ZN7TwoWire5writeEh
                0x00009238       0x5e C:\Users\Vitor\Documents\Atmel Studio\7.0\ArduinoSketch4\ArduinoSketch4\ArduinoCore\Debug\libArduinoCore.a(Wire.o)
                0x00009238                _ZN7TwoWire5writeEh
 .text._ZN7TwoWireC2Ev
                0x00009296       0x20 C:\Users\Vitor\Documents\Atmel Studio\7.0\ArduinoSketch4\ArduinoSketch4\ArduinoCore\Debug\libArduinoCore.a(Wire.o)
                0x00009296                _ZN7TwoWireC1Ev
                0x00009296                _ZN7TwoWireC2Ev
 .text._ZN7TwoWire5beginEv
                0x000092b6       0x14 C:\Users\Vitor\Documents\Atmel Studio\7.0\ArduinoSketch4\ArduinoSketch4\ArduinoCore\Debug\libArduinoCore.a(Wire.o)
                0x000092b6                _ZN7TwoWire5beginEv
 .text._ZN7TwoWire8setClockEm
                0x000092ca        0x8 C:\Users\Vitor\Documents\Atmel Studio\7.0\ArduinoSketch4\ArduinoSketch4\ArduinoCore\Debug\libArduinoCore.a(Wire.o)
                0x000092ca                _ZN7TwoWire8setClockEm
 .text._ZN7TwoWire17beginTransmissionEh
                0x000092d2       0x14 C:\Users\Vitor\Documents\Atmel Studio\7.0\ArduinoSketch4\ArduinoSketch4\ArduinoCore\Debug\libArduinoCore.a(Wire.o)
                0x000092d2                _ZN7TwoWire17beginTransmissionEh
 .text._ZN7TwoWire17beginTransmissionEi
                0x000092e6        0x2 C:\Users\Vitor\Documents\Atmel Studio\7.0\ArduinoSketch4\ArduinoSketch4\ArduinoCore\Debug\libArduinoCore.a(Wire.o)
                0x000092e6                _ZN7TwoWire17beginTransmissionEi
 .text._ZN7TwoWire15endTransmissionEh
                0x000092e8       0x26 C:\Users\Vitor\Documents\Atmel Studio\7.0\ArduinoSketch4\ArduinoSketch4\ArduinoCore\Debug\libArduinoCore.a(Wire.o)
                0x000092e8                _ZN7TwoWire15endTransmissionEh
 .text._ZN7TwoWire11requestFromEhhmhh
                0x0000930e       0xa4 C:\Users\Vitor\Documents\Atmel Studio\7.0\ArduinoSketch4\ArduinoSketch4\ArduinoCore\Debug\libArduinoCore.a(Wire.o)
                0x0000930e                _ZN7TwoWire11requestFromEhhmhh
 .text._ZN7TwoWire11requestFromEhhh
                0x000093b2       0x1e C:\Users\Vitor\Documents\Atmel Studio\7.0\ArduinoSketch4\ArduinoSketch4\ArduinoCore\Debug\libArduinoCore.a(Wire.o)
                0x000093b2                _ZN7TwoWire11requestFromEhhh
 .text._ZN7TwoWire11requestFromEii
                0x000093d0        0x4 C:\Users\Vitor\Documents\Atmel Studio\7.0\ArduinoSketch4\ArduinoSketch4\ArduinoCore\Debug\libArduinoCore.a(Wire.o)
                0x000093d0                _ZN7TwoWire11requestFromEii
 .text._ZN7TwoWire15endTransmissionEv
                0x000093d4        0x4 C:\Users\Vitor\Documents\Atmel Studio\7.0\ArduinoSketch4\ArduinoSketch4\ArduinoCore\Debug\libArduinoCore.a(Wire.o)
                0x000093d4                _ZN7TwoWire15endTransmissionEv
 .text.startup._GLOBAL__sub_I__ZN7TwoWire8rxBufferE
                0x000093d8        0x6 C:\Users\Vitor\Documents\Atmel Studio\7.0\ArduinoSketch4\ArduinoSketch4\ArduinoCore\Debug\libArduinoCore.a(Wire.o)
 .text.__cxa_pure_virtual
                0x000093de        0x4 C:\Users\Vitor\Documents\Atmel Studio\7.0\ArduinoSketch4\ArduinoSketch4\ArduinoCore\Debug\libArduinoCore.a(abi.o)
                0x000093de                __cxa_pure_virtual
 .text.__vector_36
                0x000093e2       0x6c C:\Users\Vitor\Documents\Atmel Studio\7.0\ArduinoSketch4\ArduinoSketch4\ArduinoCore\Debug\libArduinoCore.a(HardwareSerial1.o)
                0x000093e2                __vector_36
 .text.__vector_37
                0x0000944e       0x54 C:\Users\Vitor\Documents\Atmel Studio\7.0\ArduinoSketch4\ArduinoSketch4\ArduinoCore\Debug\libArduinoCore.a(HardwareSerial1.o)
                0x0000944e                __vector_37
 .text._Z17Serial1_availablev
                0x000094a2       0x14 C:\Users\Vitor\Documents\Atmel Studio\7.0\ArduinoSketch4\ArduinoSketch4\ArduinoCore\Debug\libArduinoCore.a(HardwareSerial1.o)
                0x000094a2                _Z17Serial1_availablev
 .text.startup._GLOBAL__sub_I___vector_36
                0x000094b6       0x5a C:\Users\Vitor\Documents\Atmel Studio\7.0\ArduinoSketch4\ArduinoSketch4\ArduinoCore\Debug\libArduinoCore.a(HardwareSerial1.o)
 .text.__empty  0x00009510        0x2 C:\Users\Vitor\Documents\Atmel Studio\7.0\ArduinoSketch4\ArduinoSketch4\ArduinoCore\Debug\libArduinoCore.a(hooks.o)
                0x00009510                yield
 .text.analogRead
                0x00009512       0x4a C:\Users\Vitor\Documents\Atmel Studio\7.0\ArduinoSketch4\ArduinoSketch4\ArduinoCore\Debug\libArduinoCore.a(wiring_analog.o)
                0x00009512                analogRead
 .text.turnOffPWM
                0x0000955c       0xac C:\Users\Vitor\Documents\Atmel Studio\7.0\ArduinoSketch4\ArduinoSketch4\ArduinoCore\Debug\libArduinoCore.a(wiring_digital.o)
 .text.pinMode  0x00009608       0x78 C:\Users\Vitor\Documents\Atmel Studio\7.0\ArduinoSketch4\ArduinoSketch4\ArduinoCore\Debug\libArduinoCore.a(wiring_digital.o)
                0x00009608                pinMode
 .text.digitalWrite
                0x00009680       0x5c C:\Users\Vitor\Documents\Atmel Studio\7.0\ArduinoSketch4\ArduinoSketch4\ArduinoCore\Debug\libArduinoCore.a(wiring_digital.o)
                0x00009680                digitalWrite
 .text.digitalRead
                0x000096dc       0x50 C:\Users\Vitor\Documents\Atmel Studio\7.0\ArduinoSketch4\ArduinoSketch4\ArduinoCore\Debug\libArduinoCore.a(wiring_digital.o)
                0x000096dc                digitalRead
 .text._Z3maplllll
                0x0000972c       0x82 C:\Users\Vitor\Documents\Atmel Studio\7.0\ArduinoSketch4\ArduinoSketch4\ArduinoCore\Debug\libArduinoCore.a(WMath.o)
                0x0000972c                _Z3maplllll
 .text._ZN12Adafruit_GFX9writeLineEiiiij
                0x000097ae      0x162 C:\Users\Vitor\Documents\Atmel Studio\7.0\ArduinoSketch4\ArduinoSketch4\ArduinoCore\Debug\libArduinoCore.a(Adafruit_GFX.o)
                0x000097ae                _ZN12Adafruit_GFX9writeLineEiiiij
 .text._ZN12Adafruit_GFX10writePixelEiij
                0x00009910        0xe C:\Users\Vitor\Documents\Atmel Studio\7.0\ArduinoSketch4\ArduinoSketch4\ArduinoCore\Debug\libArduinoCore.a(Adafruit_GFX.o)
                0x00009910                _ZN12Adafruit_GFX10writePixelEiij
 .text._ZN12Adafruit_GFX14writeFastVLineEiiij
                0x0000991e       0x18 C:\Users\Vitor\Documents\Atmel Studio\7.0\ArduinoSketch4\ArduinoSketch4\ArduinoCore\Debug\libArduinoCore.a(Adafruit_GFX.o)
                0x0000991e                _ZN12Adafruit_GFX14writeFastVLineEiiij
 .text._ZN12Adafruit_GFX14writeFastHLineEiiij
                0x00009936       0x18 C:\Users\Vitor\Documents\Atmel Studio\7.0\ArduinoSketch4\ArduinoSketch4\ArduinoCore\Debug\libArduinoCore.a(Adafruit_GFX.o)
                0x00009936                _ZN12Adafruit_GFX14writeFastHLineEiiij
 .text._ZN12Adafruit_GFX13writeFillRectEiiiij
                0x0000994e       0x20 C:\Users\Vitor\Documents\Atmel Studio\7.0\ArduinoSketch4\ArduinoSketch4\ArduinoCore\Debug\libArduinoCore.a(Adafruit_GFX.o)
                0x0000994e                _ZN12Adafruit_GFX13writeFillRectEiiiij
 .text._ZN12Adafruit_GFX8endWriteEv
                0x0000996e        0x2 C:\Users\Vitor\Documents\Atmel Studio\7.0\ArduinoSketch4\ArduinoSketch4\ArduinoCore\Debug\libArduinoCore.a(Adafruit_GFX.o)
                0x0000996e                _ZN12Adafruit_GFX10startWriteEv
                0x0000996e                _ZN12Adafruit_GFX8endWriteEv
 .text._ZN12Adafruit_GFX13drawFastVLineEiiij
                0x00009970       0x72 C:\Users\Vitor\Documents\Atmel Studio\7.0\ArduinoSketch4\ArduinoSketch4\ArduinoCore\Debug\libArduinoCore.a(Adafruit_GFX.o)
                0x00009970                _ZN12Adafruit_GFX13drawFastVLineEiiij
 .text._ZN12Adafruit_GFX13drawFastHLineEiiij
                0x000099e2       0x72 C:\Users\Vitor\Documents\Atmel Studio\7.0\ArduinoSketch4\ArduinoSketch4\ArduinoCore\Debug\libArduinoCore.a(Adafruit_GFX.o)
                0x000099e2                _ZN12Adafruit_GFX13drawFastHLineEiiij
 .text._ZN12Adafruit_GFX8fillRectEiiiij
                0x00009a54       0x8a C:\Users\Vitor\Documents\Atmel Studio\7.0\ArduinoSketch4\ArduinoSketch4\ArduinoCore\Debug\libArduinoCore.a(Adafruit_GFX.o)
                0x00009a54                _ZN12Adafruit_GFX8fillRectEiiiij
 .text._ZN12Adafruit_GFX10fillScreenEj
                0x00009ade       0x3a C:\Users\Vitor\Documents\Atmel Studio\7.0\ArduinoSketch4\ArduinoSketch4\ArduinoCore\Debug\libArduinoCore.a(Adafruit_GFX.o)
                0x00009ade                _ZN12Adafruit_GFX10fillScreenEj
 .text._ZN12Adafruit_GFX8drawLineEiiiij
                0x00009b18       0xda C:\Users\Vitor\Documents\Atmel Studio\7.0\ArduinoSketch4\ArduinoSketch4\ArduinoCore\Debug\libArduinoCore.a(Adafruit_GFX.o)
                0x00009b18                _ZN12Adafruit_GFX8drawLineEiiiij
 .text._ZN12Adafruit_GFX8drawRectEiiiij
                0x00009bf2       0xbe C:\Users\Vitor\Documents\Atmel Studio\7.0\ArduinoSketch4\ArduinoSketch4\ArduinoCore\Debug\libArduinoCore.a(Adafruit_GFX.o)
                0x00009bf2                _ZN12Adafruit_GFX8drawRectEiiiij
 .text._ZN12Adafruit_GFX13invertDisplayEb
                0x00009cb0        0x2 C:\Users\Vitor\Documents\Atmel Studio\7.0\ArduinoSketch4\ArduinoSketch4\ArduinoCore\Debug\libArduinoCore.a(Adafruit_GFX.o)
                0x00009cb0                _ZN12Adafruit_GFX13invertDisplayEb
 .text._ZN12Adafruit_GFX11setRotationEh
                0x00009cb2       0x2a C:\Users\Vitor\Documents\Atmel Studio\7.0\ArduinoSketch4\ArduinoSketch4\ArduinoCore\Debug\libArduinoCore.a(Adafruit_GFX.o)
                0x00009cb2                _ZN12Adafruit_GFX11setRotationEh
 .text._ZN12Adafruit_GFXC2Eii
                0x00009cdc       0x42 C:\Users\Vitor\Documents\Atmel Studio\7.0\ArduinoSketch4\ArduinoSketch4\ArduinoCore\Debug\libArduinoCore.a(Adafruit_GFX.o)
                0x00009cdc                _ZN12Adafruit_GFXC2Eii
                0x00009cdc                _ZN12Adafruit_GFXC1Eii
 .text._ZN12Adafruit_GFX10drawBitmapEiiPKhiij
                0x00009d1e      0x13c C:\Users\Vitor\Documents\Atmel Studio\7.0\ArduinoSketch4\ArduinoSketch4\ArduinoCore\Debug\libArduinoCore.a(Adafruit_GFX.o)
                0x00009d1e                _ZN12Adafruit_GFX10drawBitmapEiiPKhiij
 .text._ZN12Adafruit_GFX8drawCharEiihjjh
                0x00009e5a      0x434 C:\Users\Vitor\Documents\Atmel Studio\7.0\ArduinoSketch4\ArduinoSketch4\ArduinoCore\Debug\libArduinoCore.a(Adafruit_GFX.o)
                0x00009e5a                _ZN12Adafruit_GFX8drawCharEiihjjh
 .text._ZN12Adafruit_GFX5writeEh
                0x0000a28e      0x1a8 C:\Users\Vitor\Documents\Atmel Studio\7.0\ArduinoSketch4\ArduinoSketch4\ArduinoCore\Debug\libArduinoCore.a(Adafruit_GFX.o)
                0x0000a28e                _ZN12Adafruit_GFX5writeEh
 .text._ZN12Adafruit_GFX9setCursorEii
                0x0000a436        0xc C:\Users\Vitor\Documents\Atmel Studio\7.0\ArduinoSketch4\ArduinoSketch4\ArduinoCore\Debug\libArduinoCore.a(Adafruit_GFX.o)
                0x0000a436                _ZN12Adafruit_GFX9setCursorEii
 .text._ZN12Adafruit_GFX11setTextSizeEh
                0x0000a442        0xc C:\Users\Vitor\Documents\Atmel Studio\7.0\ArduinoSketch4\ArduinoSketch4\ArduinoCore\Debug\libArduinoCore.a(Adafruit_GFX.o)
                0x0000a442                _ZN12Adafruit_GFX11setTextSizeEh
 .text._ZN12Adafruit_GFX12setTextColorEj
                0x0000a44e        0xc C:\Users\Vitor\Documents\Atmel Studio\7.0\ArduinoSketch4\ArduinoSketch4\ArduinoCore\Debug\libArduinoCore.a(Adafruit_GFX.o)
                0x0000a44e                _ZN12Adafruit_GFX12setTextColorEj
 .text._ZN12Adafruit_GFX12setTextColorEjj
                0x0000a45a        0xc C:\Users\Vitor\Documents\Atmel Studio\7.0\ArduinoSketch4\ArduinoSketch4\ArduinoCore\Debug\libArduinoCore.a(Adafruit_GFX.o)
                0x0000a45a                _ZN12Adafruit_GFX12setTextColorEjj
 .text._ZNK12Adafruit_GFX11getRotationEv
                0x0000a466        0x6 C:\Users\Vitor\Documents\Atmel Studio\7.0\ArduinoSketch4\ArduinoSketch4\ArduinoCore\Debug\libArduinoCore.a(Adafruit_GFX.o)
                0x0000a466                _ZNK12Adafruit_GFX11getRotationEv
 .text._ZNK12Adafruit_GFX5widthEv
                0x0000a46c        0x8 C:\Users\Vitor\Documents\Atmel Studio\7.0\ArduinoSketch4\ArduinoSketch4\ArduinoCore\Debug\libArduinoCore.a(Adafruit_GFX.o)
                0x0000a46c                _ZNK12Adafruit_GFX5widthEv
 .text._ZNK12Adafruit_GFX6heightEv
                0x0000a474        0x8 C:\Users\Vitor\Documents\Atmel Studio\7.0\ArduinoSketch4\ArduinoSketch4\ArduinoCore\Debug\libArduinoCore.a(Adafruit_GFX.o)
                0x0000a474                _ZNK12Adafruit_GFX6heightEv
 .text._ZN6AD59338sendByteEhh
                0x0000a47c       0x3e C:\Users\Vitor\Documents\Atmel Studio\7.0\ArduinoSketch4\ArduinoSketch4\ArduinoCore\Debug\libArduinoCore.a(AD5933.o)
                0x0000a47c                _ZN6AD59338sendByteEhh
 .text._ZN6AD593314setClockSourceEh
                0x0000a4ba       0x16 C:\Users\Vitor\Documents\Atmel Studio\7.0\ArduinoSketch4\ArduinoSketch4\ArduinoCore\Debug\libArduinoCore.a(AD5933.o)
                0x0000a4ba                _ZN6AD593314setClockSourceEh
 .text._ZN6AD593317setStartFrequencyEm
                0x0000a4d0       0x70 C:\Users\Vitor\Documents\Atmel Studio\7.0\ArduinoSketch4\ArduinoSketch4\ArduinoCore\Debug\libArduinoCore.a(AD5933.o)
                0x0000a4d0                _ZN6AD593317setStartFrequencyEm
 .text._ZN6AD593321setIncrementFrequencyEm
                0x0000a540       0x78 C:\Users\Vitor\Documents\Atmel Studio\7.0\ArduinoSketch4\ArduinoSketch4\ArduinoCore\Debug\libArduinoCore.a(AD5933.o)
                0x0000a540                _ZN6AD593321setIncrementFrequencyEm
 .text._ZN6AD593319setNumberIncrementsEj
                0x0000a5b8       0x2a C:\Users\Vitor\Documents\Atmel Studio\7.0\ArduinoSketch4\ArduinoSketch4\ArduinoCore\Debug\libArduinoCore.a(AD5933.o)
                0x0000a5b8                _ZN6AD593319setNumberIncrementsEj
 .text._ZN6AD593316setInternalClockEb
                0x0000a5e2        0xe C:\Users\Vitor\Documents\Atmel Studio\7.0\ArduinoSketch4\ArduinoSketch4\ArduinoCore\Debug\libArduinoCore.a(AD5933.o)
                0x0000a5e2                _ZN6AD593316setInternalClockEb
 .text._ZN6AD59337getByteEhPh
                0x0000a5f0       0x76 C:\Users\Vitor\Documents\Atmel Studio\7.0\ArduinoSketch4\ArduinoSketch4\ArduinoCore\Debug\libArduinoCore.a(AD5933.o)
                0x0000a5f0                _ZN6AD59337getByteEhPh
 .text._ZN6AD593314setControlModeEh
                0x0000a666       0x36 C:\Users\Vitor\Documents\Atmel Studio\7.0\ArduinoSketch4\ArduinoSketch4\ArduinoCore\Debug\libArduinoCore.a(AD5933.o)
                0x0000a666                _ZN6AD593314setControlModeEh
 .text._ZN6AD593312setPowerModeEh
                0x0000a69c       0x1a C:\Users\Vitor\Documents\Atmel Studio\7.0\ArduinoSketch4\ArduinoSketch4\ArduinoCore\Debug\libArduinoCore.a(AD5933.o)
                0x0000a69c                _ZN6AD593312setPowerModeEh
 .text._ZN6AD59335resetEv
                0x0000a6b6       0x2e C:\Users\Vitor\Documents\Atmel Studio\7.0\ArduinoSketch4\ArduinoSketch4\ArduinoCore\Debug\libArduinoCore.a(AD5933.o)
                0x0000a6b6                _ZN6AD59335resetEv
 .text._ZN6AD59338setRangeEh
                0x0000a6e4       0x8e C:\Users\Vitor\Documents\Atmel Studio\7.0\ArduinoSketch4\ArduinoSketch4\ArduinoCore\Debug\libArduinoCore.a(AD5933.o)
                0x0000a6e4                _ZN6AD59338setRangeEh
 .text._ZN6AD593310setPGAGainEh
                0x0000a772       0x46 C:\Users\Vitor\Documents\Atmel Studio\7.0\ArduinoSketch4\ArduinoSketch4\ArduinoCore\Debug\libArduinoCore.a(AD5933.o)
                0x0000a772                _ZN6AD593310setPGAGainEh
 .text._ZN6AD593312readRegisterEh
                0x0000a7b8       0x24 C:\Users\Vitor\Documents\Atmel Studio\7.0\ArduinoSketch4\ArduinoSketch4\ArduinoCore\Debug\libArduinoCore.a(AD5933.o)
                0x0000a7b8                _ZN6AD593312readRegisterEh
 .text._ZN6AD593318readStatusRegisterEv
                0x0000a7dc        0x4 C:\Users\Vitor\Documents\Atmel Studio\7.0\ArduinoSketch4\ArduinoSketch4\ArduinoCore\Debug\libArduinoCore.a(AD5933.o)
                0x0000a7dc                _ZN6AD593318readStatusRegisterEv
 .text._ZN6AD593314getTemperatureEv
                0x0000a7e0       0x74 C:\Users\Vitor\Documents\Atmel Studio\7.0\ArduinoSketch4\ArduinoSketch4\ArduinoCore\Debug\libArduinoCore.a(AD5933.o)
                0x0000a7e0                _ZN6AD593314getTemperatureEv
 .text._ZN6AD593314getComplexDataEPiS0_
                0x0000a854       0xdc C:\Users\Vitor\Documents\Atmel Studio\7.0\ArduinoSketch4\ArduinoSketch4\ArduinoCore\Debug\libArduinoCore.a(AD5933.o)
                0x0000a854                _ZN6AD593314getComplexDataEPiS0_
 .text._ZN6AD593314frequencySweepEPiS0_i
                0x0000a930       0x8a C:\Users\Vitor\Documents\Atmel Studio\7.0\ArduinoSketch4\ArduinoSketch4\ArduinoCore\Debug\libArduinoCore.a(AD5933.o)
                0x0000a930                _ZN6AD593314frequencySweepEPiS0_i
 .text._ZN6AD59339calibrateEPfPdii
                0x0000a9ba      0x2de C:\Users\Vitor\Documents\Atmel Studio\7.0\ArduinoSketch4\ArduinoSketch4\ArduinoCore\Debug\libArduinoCore.a(AD5933.o)
                0x0000a9ba                _ZN6AD59339calibrateEPfPdii
 .text._ZN7TwoWire5writeEi
                0x0000ac98        0xe C:\Users\Vitor\Documents\Atmel Studio\7.0\ArduinoSketch4\ArduinoSketch4\ArduinoCore\Debug\libArduinoCore.a(DS3231.o)
                0x0000ac98                _ZN7TwoWire5writeEi
 .text._ZN6DS3231C2Ev
                0x0000aca6        0x2 C:\Users\Vitor\Documents\Atmel Studio\7.0\ArduinoSketch4\ArduinoSketch4\ArduinoCore\Debug\libArduinoCore.a(DS3231.o)
                0x0000aca6                _ZN6DS3231C1Ev
                0x0000aca6                _ZN6DS3231C2Ev
 .text._ZN6DS32319getSecondEv
                0x0000aca8       0x48 C:\Users\Vitor\Documents\Atmel Studio\7.0\ArduinoSketch4\ArduinoSketch4\ArduinoCore\Debug\libArduinoCore.a(DS3231.o)
                0x0000aca8                _ZN6DS32319getSecondEv
 .text._ZN6DS32319getMinuteEv
                0x0000acf0       0x48 C:\Users\Vitor\Documents\Atmel Studio\7.0\ArduinoSketch4\ArduinoSketch4\ArduinoCore\Debug\libArduinoCore.a(DS3231.o)
                0x0000acf0                _ZN6DS32319getMinuteEv
 .text._ZN6DS32317getHourERbS0_
                0x0000ad38       0x92 C:\Users\Vitor\Documents\Atmel Studio\7.0\ArduinoSketch4\ArduinoSketch4\ArduinoCore\Debug\libArduinoCore.a(DS3231.o)
                0x0000ad38                _ZN6DS32317getHourERbS0_
 .text._ZN6DS32317getDateEv
                0x0000adca       0x48 C:\Users\Vitor\Documents\Atmel Studio\7.0\ArduinoSketch4\ArduinoSketch4\ArduinoCore\Debug\libArduinoCore.a(DS3231.o)
                0x0000adca                _ZN6DS32317getDateEv
 .text._ZN6DS32318getMonthERb
                0x0000ae12       0x62 C:\Users\Vitor\Documents\Atmel Studio\7.0\ArduinoSketch4\ArduinoSketch4\ArduinoCore\Debug\libArduinoCore.a(DS3231.o)
                0x0000ae12                _ZN6DS32318getMonthERb
 .text._ZN6DS32317getYearEv
                0x0000ae74       0x48 C:\Users\Vitor\Documents\Atmel Studio\7.0\ArduinoSketch4\ArduinoSketch4\ArduinoCore\Debug\libArduinoCore.a(DS3231.o)
                0x0000ae74                _ZN6DS32317getYearEv
 .text._ZN6DS323115readControlByteEb
                0x0000aebc       0x48 C:\Users\Vitor\Documents\Atmel Studio\7.0\ArduinoSketch4\ArduinoSketch4\ArduinoCore\Debug\libArduinoCore.a(DS3231.o)
                0x0000aebc                _ZN6DS323115readControlByteEb
 .text._ZN6DS32319setMinuteEh
                0x0000af04       0x3c C:\Users\Vitor\Documents\Atmel Studio\7.0\ArduinoSketch4\ArduinoSketch4\ArduinoCore\Debug\libArduinoCore.a(DS3231.o)
                0x0000af04                _ZN6DS32319setMinuteEh
 .text._ZN6DS32317setHourEh
                0x0000af40       0xa6 C:\Users\Vitor\Documents\Atmel Studio\7.0\ArduinoSketch4\ArduinoSketch4\ArduinoCore\Debug\libArduinoCore.a(DS3231.o)
                0x0000af40                _ZN6DS32317setHourEh
 .text._ZN6DS32317setDateEh
                0x0000afe6       0x3c C:\Users\Vitor\Documents\Atmel Studio\7.0\ArduinoSketch4\ArduinoSketch4\ArduinoCore\Debug\libArduinoCore.a(DS3231.o)
                0x0000afe6                _ZN6DS32317setDateEh
 .text._ZN6DS32318setMonthEh
                0x0000b022       0x3c C:\Users\Vitor\Documents\Atmel Studio\7.0\ArduinoSketch4\ArduinoSketch4\ArduinoCore\Debug\libArduinoCore.a(DS3231.o)
                0x0000b022                _ZN6DS32318setMonthEh
 .text._ZN6DS32317setYearEh
                0x0000b05e       0x3c C:\Users\Vitor\Documents\Atmel Studio\7.0\ArduinoSketch4\ArduinoSketch4\ArduinoCore\Debug\libArduinoCore.a(DS3231.o)
                0x0000b05e                _ZN6DS32317setYearEh
 .text._ZN6DS323116writeControlByteEhb
                0x0000b09a       0x3e C:\Users\Vitor\Documents\Atmel Studio\7.0\ArduinoSketch4\ArduinoSketch4\ArduinoCore\Debug\libArduinoCore.a(DS3231.o)
                0x0000b09a                _ZN6DS323116writeControlByteEhb
 .text._ZN6DS32319setSecondEh
                0x0000b0d8       0x56 C:\Users\Vitor\Documents\Atmel Studio\7.0\ArduinoSketch4\ArduinoSketch4\ArduinoCore\Debug\libArduinoCore.a(DS3231.o)
                0x0000b0d8                _ZN6DS32319setSecondEh
 .text.twi_init
                0x0000b12e       0x3c C:\Users\Vitor\Documents\Atmel Studio\7.0\ArduinoSketch4\ArduinoSketch4\ArduinoCore\Debug\libArduinoCore.a(twi.o)
                0x0000b12e                twi_init
 .text.twi_setFrequency
                0x0000b16a       0x26 C:\Users\Vitor\Documents\Atmel Studio\7.0\ArduinoSketch4\ArduinoSketch4\ArduinoCore\Debug\libArduinoCore.a(twi.o)
                0x0000b16a                twi_setFrequency
 .text.twi_readFrom
                0x0000b190       0x90 C:\Users\Vitor\Documents\Atmel Studio\7.0\ArduinoSketch4\ArduinoSketch4\ArduinoCore\Debug\libArduinoCore.a(twi.o)
                0x0000b190                twi_readFrom
 .text.twi_writeTo
                0x0000b220       0xac C:\Users\Vitor\Documents\Atmel Studio\7.0\ArduinoSketch4\ArduinoSketch4\ArduinoCore\Debug\libArduinoCore.a(twi.o)
                0x0000b220                twi_writeTo
 .text.twi_transmit
                0x0000b2cc       0x50 C:\Users\Vitor\Documents\Atmel Studio\7.0\ArduinoSketch4\ArduinoSketch4\ArduinoCore\Debug\libArduinoCore.a(twi.o)
                0x0000b2cc                twi_transmit
 .text.twi_stop
                0x0000b31c       0x14 C:\Users\Vitor\Documents\Atmel Studio\7.0\ArduinoSketch4\ArduinoSketch4\ArduinoCore\Debug\libArduinoCore.a(twi.o)
                0x0000b31c                twi_stop
 .text.twi_releaseBus
                0x0000b330        0xc C:\Users\Vitor\Documents\Atmel Studio\7.0\ArduinoSketch4\ArduinoSketch4\ArduinoCore\Debug\libArduinoCore.a(twi.o)
                0x0000b330                twi_releaseBus
 .text.__vector_39
                0x0000b33c      0x25c C:\Users\Vitor\Documents\Atmel Studio\7.0\ArduinoSketch4\ArduinoSketch4\ArduinoCore\Debug\libArduinoCore.a(twi.o)
                0x0000b33c                __vector_39
 .text.avr-libc.fplib
                0x0000b598        0xa c:/program files (x86)/atmel/studio/7.0/toolchain/avr8/avr8-gnu-toolchain/bin/../lib/gcc/avr/5.4.0/../../../../avr/lib/avr6\libm.a(addsf3.o)
                0x0000b598                __subsf3
                0x0000b59a                __addsf3
 .text.avr-libc.fplib
                0x0000b5a2       0xc0 c:/program files (x86)/atmel/studio/7.0/toolchain/avr8/avr8-gnu-toolchain/bin/../lib/gcc/avr/5.4.0/../../../../avr/lib/avr6\libm.a(addsf3x.o)
                0x0000b5bc                __addsf3x
 .text.avr-libc.fplib
                0x0000b662       0x74 c:/program files (x86)/atmel/studio/7.0/toolchain/avr8/avr8-gnu-toolchain/bin/../lib/gcc/avr/5.4.0/../../../../avr/lib/avr6\libm.a(atan2.o)
                0x0000b680                atan2
 .text.avr-libc.fplib
                0x0000b6d6       0x50 c:/program files (x86)/atmel/studio/7.0/toolchain/avr8/avr8-gnu-toolchain/bin/../lib/gcc/avr/5.4.0/../../../../avr/lib/avr6\libm.a(atan.o)
                0x0000b6d6                atan
 .text.avr-libc.fplib
                0x0000b726        0x8 c:/program files (x86)/atmel/studio/7.0/toolchain/avr8/avr8-gnu-toolchain/bin/../lib/gcc/avr/5.4.0/../../../../avr/lib/avr6\libm.a(cmpsf2.o)
                0x0000b726                __nesf2
                0x0000b726                __eqsf2
                0x0000b726                __cmpsf2
                0x0000b726                __ltsf2
                0x0000b726                __lesf2
 .text.avr-libc.fplib
                0x0000b72e        0x6 c:/program files (x86)/atmel/studio/7.0/toolchain/avr8/avr8-gnu-toolchain/bin/../lib/gcc/avr/5.4.0/../../../../avr/lib/avr6\libm.a(cos.o)
                0x0000b72e                cos
 .text.avr-libc.fplib
                0x0000b734        0x4 c:/program files (x86)/atmel/studio/7.0/toolchain/avr8/avr8-gnu-toolchain/bin/../lib/gcc/avr/5.4.0/../../../../avr/lib/avr6\libm.a(divsf3.o)
                0x0000b734                __divsf3
 .text.avr-libc.fplib
                0x0000b738       0xcc c:/program files (x86)/atmel/studio/7.0/toolchain/avr8/avr8-gnu-toolchain/bin/../lib/gcc/avr/5.4.0/../../../../avr/lib/avr6\libm.a(divsf3x.o)
                0x0000b74e                __divsf3x
                0x0000b752                __divsf3_pse
 .text.avr-libc.fplib
                0x0000b804        0xa c:/program files (x86)/atmel/studio/7.0/toolchain/avr8/avr8-gnu-toolchain/bin/../lib/gcc/avr/5.4.0/../../../../avr/lib/avr6\libm.a(fixsfsi.o)
                0x0000b804                __fixsfsi
 .text.avr-libc.fplib
                0x0000b80e       0x58 c:/program files (x86)/atmel/studio/7.0/toolchain/avr8/avr8-gnu-toolchain/bin/../lib/gcc/avr/5.4.0/../../../../avr/lib/avr6\libm.a(fixunssfsi.o)
                0x0000b80e                __fixunssfsi
 .text.avr-libc.fplib
                0x0000b866       0x7a c:/program files (x86)/atmel/studio/7.0/toolchain/avr8/avr8-gnu-toolchain/bin/../lib/gcc/avr/5.4.0/../../../../avr/lib/avr6\libm.a(floatsisf.o)
                0x0000b866                __floatunsisf
                0x0000b86a                __floatsisf
 .text.avr-libc.fplib
                0x0000b8e0       0x48 c:/program files (x86)/atmel/studio/7.0/toolchain/avr8/avr8-gnu-toolchain/bin/../lib/gcc/avr/5.4.0/../../../../avr/lib/avr6\libm.a(fp_cmp.o)
                0x0000b8e0                __fp_cmp
 .text.avr-libc.fplib
                0x0000b928        0xc c:/program files (x86)/atmel/studio/7.0/toolchain/avr8/avr8-gnu-toolchain/bin/../lib/gcc/avr/5.4.0/../../../../avr/lib/avr6\libm.a(fp_inf.o)
                0x0000b928                __fp_inf
 .text.avr-libc.fplib
                0x0000b934        0x6 c:/program files (x86)/atmel/studio/7.0/toolchain/avr8/avr8-gnu-toolchain/bin/../lib/gcc/avr/5.4.0/../../../../avr/lib/avr6\libm.a(fp_nan.o)
                0x0000b934                __fp_nan
 .text.avr-libc.fplib
                0x0000b93a       0x4a c:/program files (x86)/atmel/studio/7.0/toolchain/avr8/avr8-gnu-toolchain/bin/../lib/gcc/avr/5.4.0/../../../../avr/lib/avr6\libm.a(fp_powser.o)
                0x0000b93a                __fp_powser
 .text.avr-libc.fplib
                0x0000b984        0xe c:/program files (x86)/atmel/studio/7.0/toolchain/avr8/avr8-gnu-toolchain/bin/../lib/gcc/avr/5.4.0/../../../../avr/lib/avr6\libm.a(fp_pscA.o)
                0x0000b984                __fp_pscA
 .text.avr-libc.fplib
                0x0000b992        0xe c:/program files (x86)/atmel/studio/7.0/toolchain/avr8/avr8-gnu-toolchain/bin/../lib/gcc/avr/5.4.0/../../../../avr/lib/avr6\libm.a(fp_pscB.o)
                0x0000b992                __fp_pscB
 .text.avr-libc.fplib
                0x0000b9a0       0x50 c:/program files (x86)/atmel/studio/7.0/toolchain/avr8/avr8-gnu-toolchain/bin/../lib/gcc/avr/5.4.0/../../../../avr/lib/avr6\libm.a(fp_rempio2.o)
                0x0000b9a2                __fp_rempio2
 .text.avr-libc.fplib
                0x0000b9f0       0x22 c:/program files (x86)/atmel/studio/7.0/toolchain/avr8/avr8-gnu-toolchain/bin/../lib/gcc/avr/5.4.0/../../../../avr/lib/avr6\libm.a(fp_round.o)
                0x0000b9f0                __fp_round
 .text.avr-libc.fplib
                0x0000ba12       0x22 c:/program files (x86)/atmel/studio/7.0/toolchain/avr8/avr8-gnu-toolchain/bin/../lib/gcc/avr/5.4.0/../../../../avr/lib/avr6\libm.a(fp_sinus.o)
                0x0000ba12                __fp_sinus
 .text.avr-libc.fplib
                0x0000ba34       0x44 c:/program files (x86)/atmel/studio/7.0/toolchain/avr8/avr8-gnu-toolchain/bin/../lib/gcc/avr/5.4.0/../../../../avr/lib/avr6\libm.a(fp_split3.o)
                0x0000ba34                __fp_split3
                0x0000ba44                __fp_splitA
 .text.avr-libc.fplib
                0x0000ba78        0xe c:/program files (x86)/atmel/studio/7.0/toolchain/avr8/avr8-gnu-toolchain/bin/../lib/gcc/avr/5.4.0/../../../../avr/lib/avr6\libm.a(fp_zero.o)
                0x0000ba78                __fp_zero
                0x0000ba7a                __fp_szero
 .text.avr-libc.fplib
                0x0000ba86        0x8 c:/program files (x86)/atmel/studio/7.0/toolchain/avr8/avr8-gnu-toolchain/bin/../lib/gcc/avr/5.4.0/../../../../avr/lib/avr6\libm.a(gesf2.o)
                0x0000ba86                __gesf2
                0x0000ba86                __gtsf2
 .text.avr-libc.fplib
                0x0000ba8e        0xe c:/program files (x86)/atmel/studio/7.0/toolchain/avr8/avr8-gnu-toolchain/bin/../lib/gcc/avr/5.4.0/../../../../avr/lib/avr6\libm.a(inverse.o)
                0x0000ba8e                inverse
 .text.avr-libc.fplib
                0x0000ba9c        0x4 c:/program files (x86)/atmel/studio/7.0/toolchain/avr8/avr8-gnu-toolchain/bin/../lib/gcc/avr/5.4.0/../../../../avr/lib/avr6\libm.a(mulsf3.o)
                0x0000ba9c                __mulsf3
 .text.avr-libc.fplib
                0x0000baa0       0xc2 c:/program files (x86)/atmel/studio/7.0/toolchain/avr8/avr8-gnu-toolchain/bin/../lib/gcc/avr/5.4.0/../../../../avr/lib/avr6\libm.a(mulsf3x.o)
                0x0000bab4                __mulsf3x
                0x0000bab8                __mulsf3_pse
 .text.avr-libc.fplib
                0x0000bb62        0xc c:/program files (x86)/atmel/studio/7.0/toolchain/avr8/avr8-gnu-toolchain/bin/../lib/gcc/avr/5.4.0/../../../../avr/lib/avr6\libm.a(sin.o)
                0x0000bb62                sin
 .text.avr-libc.fplib
                0x0000bb6e       0x84 c:/program files (x86)/atmel/studio/7.0/toolchain/avr8/avr8-gnu-toolchain/bin/../lib/gcc/avr/5.4.0/../../../../avr/lib/avr6\libm.a(sqrt.o)
                0x0000bb76                sqrtf
                0x0000bb76                sqrt
 .text.avr-libc.fplib
                0x0000bbf2        0x6 c:/program files (x86)/atmel/studio/7.0/toolchain/avr8/avr8-gnu-toolchain/bin/../lib/gcc/avr/5.4.0/../../../../avr/lib/avr6\libm.a(square.o)
                0x0000bbf2                square
 .text.avr-libc.fplib
                0x0000bbf8        0x8 c:/program files (x86)/atmel/studio/7.0/toolchain/avr8/avr8-gnu-toolchain/bin/../lib/gcc/avr/5.4.0/../../../../avr/lib/avr6\libm.a(unordsf2.o)
                0x0000bbf8                __unordsf2
 .text.avr-libc.fplib
                0x0000bc00       0x1c c:/program files (x86)/atmel/studio/7.0/toolchain/avr8/avr8-gnu-toolchain/bin/../lib/gcc/avr/5.4.0/../../../../avr/lib/avr6\libm.a(fp_mpack.o)
                0x0000bc00                __fp_mpack
                0x0000bc04                __fp_mpack_finite
 .text.avr-libc.fplib
                0x0000bc1c        0xe c:/program files (x86)/atmel/studio/7.0/toolchain/avr8/avr8-gnu-toolchain/bin/../lib/gcc/avr/5.4.0/../../../../avr/lib/avr6\libm.a(fp_norm2.o)
                0x0000bc1c                __fp_norm2
 .text.avr-libc.fplib
                0x0000bc2a       0x22 c:/program files (x86)/atmel/studio/7.0/toolchain/avr8/avr8-gnu-toolchain/bin/../lib/gcc/avr/5.4.0/../../../../avr/lib/avr6\libm.a(fp_powsodd.o)
                0x0000bc2a                __fp_powsodd
 .text.libgcc.mul
                0x0000bc4c       0x1e c:/program files (x86)/atmel/studio/7.0/toolchain/avr8/avr8-gnu-toolchain/bin/../lib/gcc/avr/5.4.0/avr6\libgcc.a(_mulsi3.o)
                0x0000bc4c                __mulsi3
 .text.libgcc.div
                0x0000bc6a       0x18 c:/program files (x86)/atmel/studio/7.0/toolchain/avr8/avr8-gnu-toolchain/bin/../lib/gcc/avr/5.4.0/avr6\libgcc.a(_udivmodqi4.o)
                0x0000bc6a                __udivmodqi4
 .text.libgcc.div
                0x0000bc82       0x26 c:/program files (x86)/atmel/studio/7.0/toolchain/avr8/avr8-gnu-toolchain/bin/../lib/gcc/avr/5.4.0/avr6\libgcc.a(_divmodhi4.o)
                0x0000bc82                _div
                0x0000bc82                __divmodhi4
 .text.libgcc.div
                0x0000bca8       0x44 c:/program files (x86)/atmel/studio/7.0/toolchain/avr8/avr8-gnu-toolchain/bin/../lib/gcc/avr/5.4.0/avr6\libgcc.a(_udivmodsi4.o)
                0x0000bca8                __udivmodsi4
 .text.libgcc.div
                0x0000bcec       0x28 c:/program files (x86)/atmel/studio/7.0/toolchain/avr8/avr8-gnu-toolchain/bin/../lib/gcc/avr/5.4.0/avr6\libgcc.a(_divmodsi4.o)
                0x0000bcec                __divmodsi4
 .text.libgcc.div
                0x0000bd14       0x10 c:/program files (x86)/atmel/studio/7.0/toolchain/avr8/avr8-gnu-toolchain/bin/../lib/gcc/avr/5.4.0/avr6\libgcc.a(_negsi2.o)
                0x0000bd14                __negsi2
 .text.libgcc   0x0000bd24       0x10 c:/program files (x86)/atmel/studio/7.0/toolchain/avr8/avr8-gnu-toolchain/bin/../lib/gcc/avr/5.4.0/avr6\libgcc.a(_tablejump2.o)
                0x0000bd24                __tablejump2__
 .text.libgcc.mul
                0x0000bd34       0x1e c:/program files (x86)/atmel/studio/7.0/toolchain/avr8/avr8-gnu-toolchain/bin/../lib/gcc/avr/5.4.0/avr6\libgcc.a(_umulhisi3.o)
                0x0000bd34                __umulhisi3
 .text.libgcc.mul
                0x0000bd52       0x14 c:/program files (x86)/atmel/studio/7.0/toolchain/avr8/avr8-gnu-toolchain/bin/../lib/gcc/avr/5.4.0/avr6\libgcc.a(_muluhisi3.o)
                0x0000bd52                __muluhisi3
 .text.libgcc.div
                0x0000bd66       0x28 c:/program files (x86)/atmel/studio/7.0/toolchain/avr8/avr8-gnu-toolchain/bin/../lib/gcc/avr/5.4.0/avr6\libgcc.a(_udivmodhi4.o)
                0x0000bd66                __udivmodhi4
 .text.avr-libc
                0x0000bd8e       0x3e c:/program files (x86)/atmel/studio/7.0/toolchain/avr8/avr8-gnu-toolchain/bin/../lib/gcc/avr/5.4.0/../../../../avr/lib/avr6\libc.a(dtostrf.o)
                0x0000bd8e                dtostrf
 .text.avr-libc
                0x0000bdcc      0x242 c:/program files (x86)/atmel/studio/7.0/toolchain/avr8/avr8-gnu-toolchain/bin/../lib/gcc/avr/5.4.0/../../../../avr/lib/avr6\libc.a(malloc.o)
                0x0000bdcc                malloc
                0x0000befc                free
 .text.avr-libc
                0x0000c00e      0x256 c:/program files (x86)/atmel/studio/7.0/toolchain/avr8/avr8-gnu-toolchain/bin/../lib/gcc/avr/5.4.0/../../../../avr/lib/avr6\libc.a(strtol.o)
                0x0000c00e                strtol
 .text.avr-libc
                0x0000c264        0x8 c:/program files (x86)/atmel/studio/7.0/toolchain/avr8/avr8-gnu-toolchain/bin/../lib/gcc/avr/5.4.0/../../../../avr/lib/avr6\libc.a(abort.o)
                0x0000c264                abort
 .text.avr-libc
                0x0000c26c       0x10 c:/program files (x86)/atmel/studio/7.0/toolchain/avr8/avr8-gnu-toolchain/bin/../lib/gcc/avr/5.4.0/../../../../avr/lib/avr6\libc.a(isspace.o)
                0x0000c26c                isspace
 .text.avr-libc
                0x0000c27c       0x16 c:/program files (x86)/atmel/studio/7.0/toolchain/avr8/avr8-gnu-toolchain/bin/../lib/gcc/avr/5.4.0/../../../../avr/lib/avr6\libc.a(strcat.o)
                0x0000c27c                strcat
 .text.avr-libc
                0x0000c292       0x12 c:/program files (x86)/atmel/studio/7.0/toolchain/avr8/avr8-gnu-toolchain/bin/../lib/gcc/avr/5.4.0/../../../../avr/lib/avr6\libc.a(strcmp.o)
                0x0000c292                strcmp
 .text.avr-libc
                0x0000c2a4        0xe c:/program files (x86)/atmel/studio/7.0/toolchain/avr8/avr8-gnu-toolchain/bin/../lib/gcc/avr/5.4.0/../../../../avr/lib/avr6\libc.a(strcpy.o)
                0x0000c2a4                strcpy
 .text.avr-libc
                0x0000c2b2       0x14 c:/program files (x86)/atmel/studio/7.0/toolchain/avr8/avr8-gnu-toolchain/bin/../lib/gcc/avr/5.4.0/../../../../avr/lib/avr6\libc.a(itoa_ncheck.o)
                0x0000c2b2                __itoa_ncheck
 .text.avr-libc
                0x0000c2c6       0x32 c:/program files (x86)/atmel/studio/7.0/toolchain/avr8/avr8-gnu-toolchain/bin/../lib/gcc/avr/5.4.0/../../../../avr/lib/avr6\libc.a(utoa_ncheck.o)
                0x0000c2c6                __utoa_ncheck
                0x0000c2c8                __utoa_common
 .text.avr-libc
                0x0000c2f8       0x78 c:/program files (x86)/atmel/studio/7.0/toolchain/avr8/avr8-gnu-toolchain/bin/../lib/gcc/avr/5.4.0/../../../../avr/lib/avr6\libc.a(snprintf.o)
                0x0000c2f8                snprintf
 .text.avr-libc
                0x0000c370      0x3fa c:/program files (x86)/atmel/studio/7.0/toolchain/avr8/avr8-gnu-toolchain/bin/../lib/gcc/avr/5.4.0/../../../../avr/lib/avr6\libc.a(vfprintf_std.o)
                0x0000c370                vfprintf
 .text.avr-libc
                0x0000c76a      0x2ec c:/program files (x86)/atmel/studio/7.0/toolchain/avr8/avr8-gnu-toolchain/bin/../lib/gcc/avr/5.4.0/../../../../avr/lib/avr6\libc.a(dtoa_prf.o)
                0x0000c76a                dtoa_prf
 .text.avr-libc
                0x0000ca56      0x1b0 c:/program files (x86)/atmel/studio/7.0/toolchain/avr8/avr8-gnu-toolchain/bin/../lib/gcc/avr/5.4.0/../../../../avr/lib/avr6\libc.a(ftoa_engine.o)
                0x0000ca56                __ftoa_engine
 .text.avr-libc
                0x0000cc06        0x6 c:/program files (x86)/atmel/studio/7.0/toolchain/avr8/avr8-gnu-toolchain/bin/../lib/gcc/avr/5.4.0/../../../../avr/lib/avr6\libc.a(cty_isfalse.o)
                0x0000cc06                __ctype_isfalse
                0x0000cc0a                __ctype_istrue
 .text.avr-libc
                0x0000cc0c       0x16 c:/program files (x86)/atmel/studio/7.0/toolchain/avr8/avr8-gnu-toolchain/bin/../lib/gcc/avr/5.4.0/../../../../avr/lib/avr6\libc.a(strnlen_P.o)
                0x0000cc0c                strnlen_P
 .text.avr-libc
                0x0000cc22       0x16 c:/program files (x86)/atmel/studio/7.0/toolchain/avr8/avr8-gnu-toolchain/bin/../lib/gcc/avr/5.4.0/../../../../avr/lib/avr6\libc.a(strnlen.o)
                0x0000cc22                strnlen
 .text.avr-libc
                0x0000cc38       0x20 c:/program files (x86)/atmel/studio/7.0/toolchain/avr8/avr8-gnu-toolchain/bin/../lib/gcc/avr/5.4.0/../../../../avr/lib/avr6\libc.a(strrev.o)
                0x0000cc38                strrev
 .text.avr-libc
                0x0000cc58       0x78 c:/program files (x86)/atmel/studio/7.0/toolchain/avr8/avr8-gnu-toolchain/bin/../lib/gcc/avr/5.4.0/../../../../avr/lib/avr6\libc.a(fputc.o)
                0x0000cc58                fputc
 .text.avr-libc
                0x0000ccd0       0xbc c:/program files (x86)/atmel/studio/7.0/toolchain/avr8/avr8-gnu-toolchain/bin/../lib/gcc/avr/5.4.0/../../../../avr/lib/avr6\libc.a(ultoa_invert.o)
                0x0000ccd0                __ultoa_invert
 .text.avr-libc
                0x0000cd8c       0x10 C:/Program Files (x86)/Atmel/Studio/7.0/Packs/Atmel/ATmega_DFP/1.2.272/gcc/dev/atmega2560/avr6\libatmega2560.a(eerd_byte.o)
                0x0000cd8c                eeprom_read_byte
 .text.avr-libc
                0x0000cd9c       0x1c C:/Program Files (x86)/Atmel/Studio/7.0/Packs/Atmel/ATmega_DFP/1.2.272/gcc/dev/atmega2560/avr6\libatmega2560.a(eewr_byte.o)
                0x0000cd9c                eeprom_write_byte
                0x0000cd9e                eeprom_write_r18
                0x0000cdb8                . = ALIGN (0x2)
 *(.fini9)
 .fini9         0x0000cdb8        0x0 c:/program files (x86)/atmel/studio/7.0/toolchain/avr8/avr8-gnu-toolchain/bin/../lib/gcc/avr/5.4.0/avr6\libgcc.a(_exit.o)
                0x0000cdb8                _exit
                0x0000cdb8                exit
 *(.fini9)
 *(.fini8)
 *(.fini8)
 *(.fini7)
 *(.fini7)
 *(.fini6)
 *(.fini6)
 *(.fini5)
 *(.fini5)
 *(.fini4)
 *(.fini4)
 *(.fini3)
 *(.fini3)
 *(.fini2)
 *(.fini2)
 *(.fini1)
 *(.fini1)
 *(.fini0)
 .fini0         0x0000cdb8        0x4 c:/program files (x86)/atmel/studio/7.0/toolchain/avr8/avr8-gnu-toolchain/bin/../lib/gcc/avr/5.4.0/avr6\libgcc.a(_exit.o)
 *(.fini0)
                0x0000cdbc                _etext = .

.data           0x00800200      0xeb2 load address 0x0000cdbc
                0x00800200                PROVIDE (__data_start, .)
 *(.data)
 .data          0x00800200        0x6 c:/program files (x86)/atmel/studio/7.0/toolchain/avr8/avr8-gnu-toolchain/bin/../lib/gcc/avr/5.4.0/../../../../avr/lib/avr6\libc.a(malloc.o)
                0x00800200                __malloc_heap_end
                0x00800202                __malloc_heap_start
                0x00800204                __malloc_margin
 *(.data*)
 .data._ZZN16Adafruit_SSD130621drawFastVLineInternalEiiijE8postmask
                0x00800206        0x8 C:\Users\Vitor\Documents\Atmel Studio\7.0\ArduinoSketch4\ArduinoSketch4\ArduinoCore\Debug\libArduinoCore.a(Adafruit_SSD1306.o)
                0x00800206                _ZZN16Adafruit_SSD130621drawFastVLineInternalEiiijE8postmask
 .data._ZZN16Adafruit_SSD130621drawFastVLineInternalEiiijE7premask
                0x0080020e        0x8 C:\Users\Vitor\Documents\Atmel Studio\7.0\ArduinoSketch4\ArduinoSketch4\ArduinoCore\Debug\libArduinoCore.a(Adafruit_SSD1306.o)
                0x0080020e                _ZZN16Adafruit_SSD130621drawFastVLineInternalEiiijE7premask
 .data._ZL6buffer
                0x00800216      0x200 C:\Users\Vitor\Documents\Atmel Studio\7.0\ArduinoSketch4\ArduinoSketch4\ArduinoCore\Debug\libArduinoCore.a(Adafruit_SSD1306.o)
 .data._ZZN9red_beryl7relogioEvE7blinker
                0x00800416        0x1 C:\Users\Vitor\Documents\Atmel Studio\7.0\ArduinoSketch4\ArduinoSketch4\ArduinoCore\Debug\libArduinoCore.a(red_beryl.o)
 .data._ZZN9red_beryl9historicoEvE1l
                0x00800417        0x2 C:\Users\Vitor\Documents\Atmel Studio\7.0\ArduinoSketch4\ArduinoSketch4\ArduinoCore\Debug\libArduinoCore.a(red_beryl.o)
 .data._ZZN9red_beryl14menu_historicoEvE6choice
                0x00800419        0x2 C:\Users\Vitor\Documents\Atmel Studio\7.0\ArduinoSketch4\ArduinoSketch4\ArduinoCore\Debug\libArduinoCore.a(red_beryl.o)
 .data._ZZN9red_beryl10menu_avisoEvE6choice
                0x0080041b        0x2 C:\Users\Vitor\Documents\Atmel Studio\7.0\ArduinoSketch4\ArduinoSketch4\ArduinoCore\Debug\libArduinoCore.a(red_beryl.o)
 .data._ZZN9red_beryl10menu_pointEvE6choice
                0x0080041d        0x2 C:\Users\Vitor\Documents\Atmel Studio\7.0\ArduinoSketch4\ArduinoSketch4\ArduinoCore\Debug\libArduinoCore.a(red_beryl.o)
 .data._ZZN9red_beryl10menu_rangeEvE6select
                0x0080041f        0x2 C:\Users\Vitor\Documents\Atmel Studio\7.0\ArduinoSketch4\ArduinoSketch4\ArduinoCore\Debug\libArduinoCore.a(red_beryl.o)
 .data._ZZN9red_beryl10menu_rangeEvE6choice
                0x00800421        0x2 C:\Users\Vitor\Documents\Atmel Studio\7.0\ArduinoSketch4\ArduinoSketch4\ArduinoCore\Debug\libArduinoCore.a(red_beryl.o)
 .data._ZZN9red_beryl11menu_ajusteEvE6select
                0x00800423        0x2 C:\Users\Vitor\Documents\Atmel Studio\7.0\ArduinoSketch4\ArduinoSketch4\ArduinoCore\Debug\libArduinoCore.a(red_beryl.o)
 .data._ZZN9red_beryl11menu_ajusteEvE6choice
                0x00800425        0x2 C:\Users\Vitor\Documents\Atmel Studio\7.0\ArduinoSketch4\ArduinoSketch4\ArduinoCore\Debug\libArduinoCore.a(red_beryl.o)
 .data._ZZN9red_beryl12menu_leituraEvE10frequencia
                0x00800427        0x4 C:\Users\Vitor\Documents\Atmel Studio\7.0\ArduinoSketch4\ArduinoSketch4\ArduinoCore\Debug\libArduinoCore.a(red_beryl.o)
 .data._ZZN9red_beryl12menu_leituraEvE6choice
                0x0080042b        0x2 C:\Users\Vitor\Documents\Atmel Studio\7.0\ArduinoSketch4\ArduinoSketch4\ArduinoCore\Debug\libArduinoCore.a(red_beryl.o)
 .data._ZZN9red_beryl4menuEvE6choice
                0x0080042d        0x2 C:\Users\Vitor\Documents\Atmel Studio\7.0\ArduinoSketch4\ArduinoSketch4\ArduinoCore\Debug\libArduinoCore.a(red_beryl.o)
 .data._ZZN9red_beryl9checarPinEvE5first
                0x0080042f        0x1 C:\Users\Vitor\Documents\Atmel Studio\7.0\ArduinoSketch4\ArduinoSketch4\ArduinoCore\Debug\libArduinoCore.a(red_beryl.o)
 .data.analog_reference
                0x00800430        0x1 C:\Users\Vitor\Documents\Atmel Studio\7.0\ArduinoSketch4\ArduinoSketch4\ArduinoCore\Debug\libArduinoCore.a(wiring_analog.o)
                0x00800430                analog_reference
 *(.gnu.linkonce.d*)
 *(.rodata)
 *(.rodata*)
 .rodata.str1.1
                0x00800431       0x19 Sketch.o
 .rodata._ZTV14HardwareSerial
                0x0080044a       0x12 C:\Users\Vitor\Documents\Atmel Studio\7.0\ArduinoSketch4\ArduinoSketch4\ArduinoCore\Debug\libArduinoCore.a(HardwareSerial.o)
                0x0080044a                _ZTV14HardwareSerial
 .rodata.str1.1
                0x0080045c        0xf C:\Users\Vitor\Documents\Atmel Studio\7.0\ArduinoSketch4\ArduinoSketch4\ArduinoCore\Debug\libArduinoCore.a(Print.o)
 .rodata._ZTV16Adafruit_SSD1306
                0x0080046b       0x2c C:\Users\Vitor\Documents\Atmel Studio\7.0\ArduinoSketch4\ArduinoSketch4\ArduinoCore\Debug\libArduinoCore.a(Adafruit_SSD1306.o)
                0x0080046b                _ZTV16Adafruit_SSD1306
 .rodata.str1.1
                0x00800497      0x492 C:\Users\Vitor\Documents\Atmel Studio\7.0\ArduinoSketch4\ArduinoSketch4\ArduinoCore\Debug\libArduinoCore.a(red_beryl.o)
                                0x4c7 (size before relaxing)
 .rodata.str1.1
                0x00800929      0x27d C:\Users\Vitor\Documents\Atmel Studio\7.0\ArduinoSketch4\ArduinoSketch4\ArduinoCore\Debug\libArduinoCore.a(red_crystal.o)
                                0x286 (size before relaxing)
 .rodata.str1.1
                0x00800ba6      0x402 C:\Users\Vitor\Documents\Atmel Studio\7.0\ArduinoSketch4\ArduinoSketch4\ArduinoCore\Debug\libArduinoCore.a(red_fang.o)
                                0x52a (size before relaxing)
 .rodata.str1.1
                0x00800fa8       0x51 C:\Users\Vitor\Documents\Atmel Studio\7.0\ArduinoSketch4\ArduinoSketch4\ArduinoCore\Debug\libArduinoCore.a(red_quartz.o)
                                 0x59 (size before relaxing)
 .rodata._ZTV7TwoWire
                0x00800ff9       0x12 C:\Users\Vitor\Documents\Atmel Studio\7.0\ArduinoSketch4\ArduinoSketch4\ArduinoCore\Debug\libArduinoCore.a(Wire.o)
                0x00800ff9                _ZTV7TwoWire
 .rodata._ZTV12Adafruit_GFX
                0x0080100b       0x2c C:\Users\Vitor\Documents\Atmel Studio\7.0\ArduinoSketch4\ArduinoSketch4\ArduinoCore\Debug\libArduinoCore.a(Adafruit_GFX.o)
                0x0080100b                _ZTV12Adafruit_GFX
 .rodata.str1.1
                0x00801037       0x7a C:\Users\Vitor\Documents\Atmel Studio\7.0\ArduinoSketch4\ArduinoSketch4\ArduinoCore\Debug\libArduinoCore.a(AD5933.o)
                                 0x7f (size before relaxing)
 *(.gnu.linkonce.r*)
                0x008010b2                . = ALIGN (0x2)
 *fill*         0x008010b1        0x1 
                0x008010b2                _edata = .
                0x008010b2                PROVIDE (__data_end, .)

.bss            0x008010b2      0x535
                0x008010b2                PROVIDE (__bss_start, .)
 *(.bss)
 *(.bss*)
 .bss.fang      0x008010b2        0xc Sketch.o
                0x008010b2                fang
 .bss.rb        0x008010be        0x2 Sketch.o
                0x008010be                rb
 .bss.Serial    0x008010c0       0x9d C:\Users\Vitor\Documents\Atmel Studio\7.0\ArduinoSketch4\ArduinoSketch4\ArduinoCore\Debug\libArduinoCore.a(HardwareSerial0.o)
                0x008010c0                Serial
 .bss.timer0_fract
                0x0080115d        0x1 C:\Users\Vitor\Documents\Atmel Studio\7.0\ArduinoSketch4\ArduinoSketch4\ArduinoCore\Debug\libArduinoCore.a(wiring.o)
 .bss.timer0_millis
                0x0080115e        0x4 C:\Users\Vitor\Documents\Atmel Studio\7.0\ArduinoSketch4\ArduinoSketch4\ArduinoCore\Debug\libArduinoCore.a(wiring.o)
                0x0080115e                timer0_millis
 .bss.timer0_overflow_count
                0x00801162        0x4 C:\Users\Vitor\Documents\Atmel Studio\7.0\ArduinoSketch4\ArduinoSketch4\ArduinoCore\Debug\libArduinoCore.a(wiring.o)
                0x00801162                timer0_overflow_count
 .bss._ZZN9red_beryl7relogioEvE5track
                0x00801166        0x2 C:\Users\Vitor\Documents\Atmel Studio\7.0\ArduinoSketch4\ArduinoSketch4\ArduinoCore\Debug\libArduinoCore.a(red_beryl.o)
 .bss._ZZN9red_beryl7relogioEvE8tempTemp
                0x00801168        0x4 C:\Users\Vitor\Documents\Atmel Studio\7.0\ArduinoSketch4\ArduinoSketch4\ArduinoCore\Debug\libArduinoCore.a(red_beryl.o)
 .bss._ZZN9red_beryl7relogioEvE5tempY
                0x0080116c        0x2 C:\Users\Vitor\Documents\Atmel Studio\7.0\ArduinoSketch4\ArduinoSketch4\ArduinoCore\Debug\libArduinoCore.a(red_beryl.o)
 .bss._ZZN9red_beryl7relogioEvE6tempMn
                0x0080116e        0x2 C:\Users\Vitor\Documents\Atmel Studio\7.0\ArduinoSketch4\ArduinoSketch4\ArduinoCore\Debug\libArduinoCore.a(red_beryl.o)
 .bss._ZZN9red_beryl7relogioEvE5tempD
                0x00801170        0x2 C:\Users\Vitor\Documents\Atmel Studio\7.0\ArduinoSketch4\ArduinoSketch4\ArduinoCore\Debug\libArduinoCore.a(red_beryl.o)
 .bss._ZZN9red_beryl7relogioEvE5tempM
                0x00801172        0x2 C:\Users\Vitor\Documents\Atmel Studio\7.0\ArduinoSketch4\ArduinoSketch4\ArduinoCore\Debug\libArduinoCore.a(red_beryl.o)
 .bss._ZZN9red_beryl7relogioEvE5tempH
                0x00801174        0x2 C:\Users\Vitor\Documents\Atmel Studio\7.0\ArduinoSketch4\ArduinoSketch4\ArduinoCore\Debug\libArduinoCore.a(red_beryl.o)
 .bss._ZZN9red_beryl7relogioEvE5doing
                0x00801176        0x1 C:\Users\Vitor\Documents\Atmel Studio\7.0\ArduinoSketch4\ArduinoSketch4\ArduinoCore\Debug\libArduinoCore.a(red_beryl.o)
 .bss._ZZN9red_beryl9historicoEvE2L3
                0x00801177       0x6e C:\Users\Vitor\Documents\Atmel Studio\7.0\ArduinoSketch4\ArduinoSketch4\ArduinoCore\Debug\libArduinoCore.a(red_beryl.o)
 .bss._ZZN9red_beryl9historicoEvE2L2
                0x008011e5       0x6e C:\Users\Vitor\Documents\Atmel Studio\7.0\ArduinoSketch4\ArduinoSketch4\ArduinoCore\Debug\libArduinoCore.a(red_beryl.o)
 .bss._ZZN9red_beryl9historicoEvE2L1
                0x00801253       0x6e C:\Users\Vitor\Documents\Atmel Studio\7.0\ArduinoSketch4\ArduinoSketch4\ArduinoCore\Debug\libArduinoCore.a(red_beryl.o)
 .bss._ZZN9red_beryl9historicoEvE3ler
                0x008012c1        0x1 C:\Users\Vitor\Documents\Atmel Studio\7.0\ArduinoSketch4\ArduinoSketch4\ArduinoCore\Debug\libArduinoCore.a(red_beryl.o)
 .bss._ZZN9red_beryl9historicoEvE14perguntaDelete
                0x008012c2        0x1 C:\Users\Vitor\Documents\Atmel Studio\7.0\ArduinoSketch4\ArduinoSketch4\ArduinoCore\Debug\libArduinoCore.a(red_beryl.o)
 .bss._ZZN9red_beryl9historicoEvE11leituraTemp
                0x008012c3       0x6e C:\Users\Vitor\Documents\Atmel Studio\7.0\ArduinoSketch4\ArduinoSketch4\ArduinoCore\Debug\libArduinoCore.a(red_beryl.o)
 .bss._ZZN9red_beryl9historicoEvE7recebeu
                0x00801331        0x1 C:\Users\Vitor\Documents\Atmel Studio\7.0\ArduinoSketch4\ArduinoSketch4\ArduinoCore\Debug\libArduinoCore.a(red_beryl.o)
 .bss._ZZN9red_beryl9historicoEvE8detalhar
                0x00801332        0x1 C:\Users\Vitor\Documents\Atmel Studio\7.0\ArduinoSketch4\ArduinoSketch4\ArduinoCore\Debug\libArduinoCore.a(red_beryl.o)
 .bss._ZZN9red_beryl9historicoEvE1i
                0x00801333        0x2 C:\Users\Vitor\Documents\Atmel Studio\7.0\ArduinoSketch4\ArduinoSketch4\ArduinoCore\Debug\libArduinoCore.a(red_beryl.o)
 .bss._ZZN9red_beryl9historicoEvE5limit
                0x00801335        0x2 C:\Users\Vitor\Documents\Atmel Studio\7.0\ArduinoSketch4\ArduinoSketch4\ArduinoCore\Debug\libArduinoCore.a(red_beryl.o)
 .bss._ZZN9red_beryl14menu_historicoEvE1i
                0x00801337        0x2 C:\Users\Vitor\Documents\Atmel Studio\7.0\ArduinoSketch4\ArduinoSketch4\ArduinoCore\Debug\libArduinoCore.a(red_beryl.o)
 .bss._ZZN9red_beryl14menu_historicoEvE7reseter_0
                0x00801339        0x1 C:\Users\Vitor\Documents\Atmel Studio\7.0\ArduinoSketch4\ArduinoSketch4\ArduinoCore\Debug\libArduinoCore.a(red_beryl.o)
 .bss._ZZN9red_beryl14menu_historicoEvE4wipe
                0x0080133a        0x1 C:\Users\Vitor\Documents\Atmel Studio\7.0\ArduinoSketch4\ArduinoSketch4\ArduinoCore\Debug\libArduinoCore.a(red_beryl.o)
 .bss._ZZN9red_beryl14menu_historicoEvE7reseter
                0x0080133b        0x1 C:\Users\Vitor\Documents\Atmel Studio\7.0\ArduinoSketch4\ArduinoSketch4\ArduinoCore\Debug\libArduinoCore.a(red_beryl.o)
 .bss._ZZN9red_beryl14menu_historicoEvE5clear
                0x0080133c        0x1 C:\Users\Vitor\Documents\Atmel Studio\7.0\ArduinoSketch4\ArduinoSketch4\ArduinoCore\Debug\libArduinoCore.a(red_beryl.o)
 .bss._ZZN9red_beryl11menu_ajusteEvE3rel
                0x0080133d        0x1 C:\Users\Vitor\Documents\Atmel Studio\7.0\ArduinoSketch4\ArduinoSketch4\ArduinoCore\Debug\libArduinoCore.a(red_beryl.o)
 .bss._ZZN9red_beryl12menu_leituraEvE5limit
                0x0080133e        0x2 C:\Users\Vitor\Documents\Atmel Studio\7.0\ArduinoSketch4\ArduinoSketch4\ArduinoCore\Debug\libArduinoCore.a(red_beryl.o)
 .bss._ZZN9red_beryl12menu_leituraEvE4done
                0x00801340        0x1 C:\Users\Vitor\Documents\Atmel Studio\7.0\ArduinoSketch4\ArduinoSketch4\ArduinoCore\Debug\libArduinoCore.a(red_beryl.o)
 .bss._ZZN9red_beryl17notificationTimerEbE5timer
                0x00801341        0x4 C:\Users\Vitor\Documents\Atmel Studio\7.0\ArduinoSketch4\ArduinoSketch4\ArduinoCore\Debug\libArduinoCore.a(red_beryl.o)
 .bss._ZZN9red_beryl17notificationTimerEbE11lockedTimer
                0x00801345        0x4 C:\Users\Vitor\Documents\Atmel Studio\7.0\ArduinoSketch4\ArduinoSketch4\ArduinoCore\Debug\libArduinoCore.a(red_beryl.o)
 .bss._ZZN9red_beryl8upperBarEvE7timeStr
                0x00801349        0x2 C:\Users\Vitor\Documents\Atmel Studio\7.0\ArduinoSketch4\ArduinoSketch4\ArduinoCore\Debug\libArduinoCore.a(red_beryl.o)
 .bss._ZZN9red_beryl8upperBarEvE8tempMill
                0x0080134b        0x4 C:\Users\Vitor\Documents\Atmel Studio\7.0\ArduinoSketch4\ArduinoSketch4\ArduinoCore\Debug\libArduinoCore.a(red_beryl.o)
 .bss._ZZN9red_beryl8upperBarEvE9tempMill2
                0x0080134f        0x4 C:\Users\Vitor\Documents\Atmel Studio\7.0\ArduinoSketch4\ArduinoSketch4\ArduinoCore\Debug\libArduinoCore.a(red_beryl.o)
 .bss._ZZN9red_beryl8upperBarEvE4mill
                0x00801353        0x4 C:\Users\Vitor\Documents\Atmel Studio\7.0\ArduinoSketch4\ArduinoSketch4\ArduinoCore\Debug\libArduinoCore.a(red_beryl.o)
 .bss._ZZN9red_beryl8upperBarEvE11temperature
                0x00801357        0x4 C:\Users\Vitor\Documents\Atmel Studio\7.0\ArduinoSketch4\ArduinoSketch4\ArduinoCore\Debug\libArduinoCore.a(red_beryl.o)
 .bss._ZZN9red_beryl8upperBarEvE3pwr
                0x0080135b        0x2 C:\Users\Vitor\Documents\Atmel Studio\7.0\ArduinoSketch4\ArduinoSketch4\ArduinoCore\Debug\libArduinoCore.a(red_beryl.o)
 .bss._ZZN9red_beryl8upperBarEvE3pct
                0x0080135d        0x2 C:\Users\Vitor\Documents\Atmel Studio\7.0\ArduinoSketch4\ArduinoSketch4\ArduinoCore\Debug\libArduinoCore.a(red_beryl.o)
 .bss._ZZN9red_beryl9checarPinEvE10tempButton
                0x0080135f        0x2 C:\Users\Vitor\Documents\Atmel Studio\7.0\ArduinoSketch4\ArduinoSketch4\ArduinoCore\Debug\libArduinoCore.a(red_beryl.o)
 .bss._ZGVZN9red_beryl9historicoEvE5limit
                0x00801361        0x8 C:\Users\Vitor\Documents\Atmel Studio\7.0\ArduinoSketch4\ArduinoSketch4\ArduinoCore\Debug\libArduinoCore.a(red_beryl.o)
 .bss._ZGVZN9red_beryl12menu_leituraEvE5limit
                0x00801369        0x8 C:\Users\Vitor\Documents\Atmel Studio\7.0\ArduinoSketch4\ArduinoSketch4\ArduinoCore\Debug\libArduinoCore.a(red_beryl.o)
 .bss._ZGVZN9red_beryl17notificationTimerEbE11lockedTimer
                0x00801371        0x8 C:\Users\Vitor\Documents\Atmel Studio\7.0\ArduinoSketch4\ArduinoSketch4\ArduinoCore\Debug\libArduinoCore.a(red_beryl.o)
 .bss._ZGVZN9red_beryl8upperBarEvE11temperature
                0x00801379        0x8 C:\Users\Vitor\Documents\Atmel Studio\7.0\ArduinoSketch4\ArduinoSketch4\ArduinoCore\Debug\libArduinoCore.a(red_beryl.o)
 .bss._ZGVZN9red_beryl8upperBarEvE3pwr
                0x00801381        0x8 C:\Users\Vitor\Documents\Atmel Studio\7.0\ArduinoSketch4\ArduinoSketch4\ArduinoCore\Debug\libArduinoCore.a(red_beryl.o)
 .bss._ZGVZN9red_beryl8upperBarEvE3pct
                0x00801389        0x8 C:\Users\Vitor\Documents\Atmel Studio\7.0\ArduinoSketch4\ArduinoSketch4\ArduinoCore\Debug\libArduinoCore.a(red_beryl.o)
 .bss._ZZN8red_fang3getEibE3inf
                0x00801391        0x2 C:\Users\Vitor\Documents\Atmel Studio\7.0\ArduinoSketch4\ArduinoSketch4\ArduinoCore\Debug\libArduinoCore.a(red_fang.o)
 .bss._ZZN8red_fang3getEibE2lt
                0x00801393       0x6e C:\Users\Vitor\Documents\Atmel Studio\7.0\ArduinoSketch4\ArduinoSketch4\ArduinoCore\Debug\libArduinoCore.a(red_fang.o)
 .bss._ZZN8red_fang3getEibE1z
                0x00801401        0x2 C:\Users\Vitor\Documents\Atmel Studio\7.0\ArduinoSketch4\ArduinoSketch4\ArduinoCore\Debug\libArduinoCore.a(red_fang.o)
 .bss._ZZN8red_fang10getComplexE8leiturasiE1x
                0x00801403        0x2 C:\Users\Vitor\Documents\Atmel Studio\7.0\ArduinoSketch4\ArduinoSketch4\ArduinoCore\Debug\libArduinoCore.a(red_fang.o)
 .bss._ZZN8red_fang10ler_serialEvE3inf
                0x00801405        0x2 C:\Users\Vitor\Documents\Atmel Studio\7.0\ArduinoSketch4\ArduinoSketch4\ArduinoCore\Debug\libArduinoCore.a(red_fang.o)
 .bss._ZZN8red_fang10ler_serialEvE2lt
                0x00801407       0x6e C:\Users\Vitor\Documents\Atmel Studio\7.0\ArduinoSketch4\ArduinoSketch4\ArduinoCore\Debug\libArduinoCore.a(red_fang.o)
 .bss._ZZN8red_fang10ler_serialEvE4done
                0x00801475        0x1 C:\Users\Vitor\Documents\Atmel Studio\7.0\ArduinoSketch4\ArduinoSketch4\ArduinoCore\Debug\libArduinoCore.a(red_fang.o)
 .bss._ZZN8red_fang10ler_serialEvE5limit
                0x00801476        0x2 C:\Users\Vitor\Documents\Atmel Studio\7.0\ArduinoSketch4\ArduinoSketch4\ArduinoCore\Debug\libArduinoCore.a(red_fang.o)
 .bss._ZGVZN8red_fang10ler_serialEvE5limit
                0x00801478        0x8 C:\Users\Vitor\Documents\Atmel Studio\7.0\ArduinoSketch4\ArduinoSketch4\ArduinoCore\Debug\libArduinoCore.a(red_fang.o)
 .bss._ZN8SPIClass13interruptSaveE
                0x00801480        0x1 C:\Users\Vitor\Documents\Atmel Studio\7.0\ArduinoSketch4\ArduinoSketch4\ArduinoCore\Debug\libArduinoCore.a(SPI.o)
                0x00801480                _ZN8SPIClass13interruptSaveE
 .bss._ZN8SPIClass13interruptMaskE
                0x00801481        0x1 C:\Users\Vitor\Documents\Atmel Studio\7.0\ArduinoSketch4\ArduinoSketch4\ArduinoCore\Debug\libArduinoCore.a(SPI.o)
                0x00801481                _ZN8SPIClass13interruptMaskE
 .bss._ZN8SPIClass13interruptModeE
                0x00801482        0x1 C:\Users\Vitor\Documents\Atmel Studio\7.0\ArduinoSketch4\ArduinoSketch4\ArduinoCore\Debug\libArduinoCore.a(SPI.o)
                0x00801482                _ZN8SPIClass13interruptModeE
 .bss._ZN8SPIClass11initializedE
                0x00801483        0x1 C:\Users\Vitor\Documents\Atmel Studio\7.0\ArduinoSketch4\ArduinoSketch4\ArduinoCore\Debug\libArduinoCore.a(SPI.o)
                0x00801483                _ZN8SPIClass11initializedE
 .bss.Wire      0x00801484        0xc C:\Users\Vitor\Documents\Atmel Studio\7.0\ArduinoSketch4\ArduinoSketch4\ArduinoCore\Debug\libArduinoCore.a(Wire.o)
                0x00801484                Wire
 .bss._ZN7TwoWire12transmittingE
                0x00801490        0x1 C:\Users\Vitor\Documents\Atmel Studio\7.0\ArduinoSketch4\ArduinoSketch4\ArduinoCore\Debug\libArduinoCore.a(Wire.o)
                0x00801490                _ZN7TwoWire12transmittingE
 .bss._ZN7TwoWire14txBufferLengthE
                0x00801491        0x1 C:\Users\Vitor\Documents\Atmel Studio\7.0\ArduinoSketch4\ArduinoSketch4\ArduinoCore\Debug\libArduinoCore.a(Wire.o)
                0x00801491                _ZN7TwoWire14txBufferLengthE
 .bss._ZN7TwoWire13txBufferIndexE
                0x00801492        0x1 C:\Users\Vitor\Documents\Atmel Studio\7.0\ArduinoSketch4\ArduinoSketch4\ArduinoCore\Debug\libArduinoCore.a(Wire.o)
                0x00801492                _ZN7TwoWire13txBufferIndexE
 .bss._ZN7TwoWire8txBufferE
                0x00801493       0x20 C:\Users\Vitor\Documents\Atmel Studio\7.0\ArduinoSketch4\ArduinoSketch4\ArduinoCore\Debug\libArduinoCore.a(Wire.o)
                0x00801493                _ZN7TwoWire8txBufferE
 .bss._ZN7TwoWire9txAddressE
                0x008014b3        0x1 C:\Users\Vitor\Documents\Atmel Studio\7.0\ArduinoSketch4\ArduinoSketch4\ArduinoCore\Debug\libArduinoCore.a(Wire.o)
                0x008014b3                _ZN7TwoWire9txAddressE
 .bss._ZN7TwoWire14rxBufferLengthE
                0x008014b4        0x1 C:\Users\Vitor\Documents\Atmel Studio\7.0\ArduinoSketch4\ArduinoSketch4\ArduinoCore\Debug\libArduinoCore.a(Wire.o)
                0x008014b4                _ZN7TwoWire14rxBufferLengthE
 .bss._ZN7TwoWire13rxBufferIndexE
                0x008014b5        0x1 C:\Users\Vitor\Documents\Atmel Studio\7.0\ArduinoSketch4\ArduinoSketch4\ArduinoCore\Debug\libArduinoCore.a(Wire.o)
                0x008014b5                _ZN7TwoWire13rxBufferIndexE
 .bss._ZN7TwoWire8rxBufferE
                0x008014b6       0x20 C:\Users\Vitor\Documents\Atmel Studio\7.0\ArduinoSketch4\ArduinoSketch4\ArduinoCore\Debug\libArduinoCore.a(Wire.o)
                0x008014b6                _ZN7TwoWire8rxBufferE
 .bss.Serial1   0x008014d6       0x9d C:\Users\Vitor\Documents\Atmel Studio\7.0\ArduinoSketch4\ArduinoSketch4\ArduinoCore\Debug\libArduinoCore.a(HardwareSerial1.o)
                0x008014d6                Serial1
 .bss.twi_error
                0x00801573        0x1 C:\Users\Vitor\Documents\Atmel Studio\7.0\ArduinoSketch4\ArduinoSketch4\ArduinoCore\Debug\libArduinoCore.a(twi.o)
 .bss.twi_rxBufferIndex
                0x00801574        0x1 C:\Users\Vitor\Documents\Atmel Studio\7.0\ArduinoSketch4\ArduinoSketch4\ArduinoCore\Debug\libArduinoCore.a(twi.o)
 .bss.twi_rxBuffer
                0x00801575       0x20 C:\Users\Vitor\Documents\Atmel Studio\7.0\ArduinoSketch4\ArduinoSketch4\ArduinoCore\Debug\libArduinoCore.a(twi.o)
 .bss.twi_txBufferLength
                0x00801595        0x1 C:\Users\Vitor\Documents\Atmel Studio\7.0\ArduinoSketch4\ArduinoSketch4\ArduinoCore\Debug\libArduinoCore.a(twi.o)
 .bss.twi_txBufferIndex
                0x00801596        0x1 C:\Users\Vitor\Documents\Atmel Studio\7.0\ArduinoSketch4\ArduinoSketch4\ArduinoCore\Debug\libArduinoCore.a(twi.o)
 .bss.twi_txBuffer
                0x00801597       0x20 C:\Users\Vitor\Documents\Atmel Studio\7.0\ArduinoSketch4\ArduinoSketch4\ArduinoCore\Debug\libArduinoCore.a(twi.o)
 .bss.twi_masterBufferLength
                0x008015b7        0x1 C:\Users\Vitor\Documents\Atmel Studio\7.0\ArduinoSketch4\ArduinoSketch4\ArduinoCore\Debug\libArduinoCore.a(twi.o)
 .bss.twi_masterBufferIndex
                0x008015b8        0x1 C:\Users\Vitor\Documents\Atmel Studio\7.0\ArduinoSketch4\ArduinoSketch4\ArduinoCore\Debug\libArduinoCore.a(twi.o)
 .bss.twi_masterBuffer
                0x008015b9       0x20 C:\Users\Vitor\Documents\Atmel Studio\7.0\ArduinoSketch4\ArduinoSketch4\ArduinoCore\Debug\libArduinoCore.a(twi.o)
 .bss.twi_onSlaveReceive
                0x008015d9        0x2 C:\Users\Vitor\Documents\Atmel Studio\7.0\ArduinoSketch4\ArduinoSketch4\ArduinoCore\Debug\libArduinoCore.a(twi.o)
 .bss.twi_onSlaveTransmit
                0x008015db        0x2 C:\Users\Vitor\Documents\Atmel Studio\7.0\ArduinoSketch4\ArduinoSketch4\ArduinoCore\Debug\libArduinoCore.a(twi.o)
 .bss.twi_inRepStart
                0x008015dd        0x1 C:\Users\Vitor\Documents\Atmel Studio\7.0\ArduinoSketch4\ArduinoSketch4\ArduinoCore\Debug\libArduinoCore.a(twi.o)
 .bss.twi_sendStop
                0x008015de        0x1 C:\Users\Vitor\Documents\Atmel Studio\7.0\ArduinoSketch4\ArduinoSketch4\ArduinoCore\Debug\libArduinoCore.a(twi.o)
 .bss.twi_slarw
                0x008015df        0x1 C:\Users\Vitor\Documents\Atmel Studio\7.0\ArduinoSketch4\ArduinoSketch4\ArduinoCore\Debug\libArduinoCore.a(twi.o)
 .bss.twi_state
                0x008015e0        0x1 C:\Users\Vitor\Documents\Atmel Studio\7.0\ArduinoSketch4\ArduinoSketch4\ArduinoCore\Debug\libArduinoCore.a(twi.o)
 *(COMMON)
 COMMON         0x008015e1        0x4 c:/program files (x86)/atmel/studio/7.0/toolchain/avr8/avr8-gnu-toolchain/bin/../lib/gcc/avr/5.4.0/../../../../avr/lib/avr6\libc.a(malloc.o)
                0x008015e1                __brkval
                0x008015e3                __flp
 COMMON         0x008015e5        0x2 c:/program files (x86)/atmel/studio/7.0/toolchain/avr8/avr8-gnu-toolchain/bin/../lib/gcc/avr/5.4.0/../../../../avr/lib/avr6\libc.a(errno.o)
                0x008015e5                errno
                0x008015e7                PROVIDE (__bss_end, .)
                0x0000cdbc                __data_load_start = LOADADDR (.data)
                0x0000dc6e                __data_load_end = (__data_load_start + SIZEOF (.data))

.noinit         0x008015e7        0x0
                [!provide]                PROVIDE (__noinit_start, .)
 *(.noinit*)
                [!provide]                PROVIDE (__noinit_end, .)
                0x008015e7                _end = .
                0x008015e7                PROVIDE (__heap_start, .)

.eeprom         0x00810000        0x0
 *(.eeprom*)
                0x00810000                __eeprom_end = .

.fuse
 *(.fuse)
 *(.lfuse)
 *(.hfuse)
 *(.efuse)

.lock
 *(.lock*)

.signature
 *(.signature*)

.user_signatures
 *(.user_signatures*)

.stab
 *(.stab)

.stabstr
 *(.stabstr)

.stab.excl
 *(.stab.excl)

.stab.exclstr
 *(.stab.exclstr)

.stab.index
 *(.stab.index)

.stab.indexstr
 *(.stab.indexstr)

.comment        0x00000000       0x5c
 *(.comment)
 .comment       0x00000000       0x30 Sketch.o
                                 0x31 (size before relaxing)
 .comment       0x00000030       0x31 C:\Users\Vitor\Documents\Atmel Studio\7.0\ArduinoSketch4\ArduinoSketch4\ArduinoCore\Debug\libArduinoCore.a(HardwareSerial.o)
 .comment       0x00000030       0x31 C:\Users\Vitor\Documents\Atmel Studio\7.0\ArduinoSketch4\ArduinoSketch4\ArduinoCore\Debug\libArduinoCore.a(HardwareSerial0.o)
 .comment       0x00000030       0x31 C:\Users\Vitor\Documents\Atmel Studio\7.0\ArduinoSketch4\ArduinoSketch4\ArduinoCore\Debug\libArduinoCore.a(main.o)
 .comment       0x00000030       0x31 C:\Users\Vitor\Documents\Atmel Studio\7.0\ArduinoSketch4\ArduinoSketch4\ArduinoCore\Debug\libArduinoCore.a(new.o)
 .comment       0x00000030       0x31 C:\Users\Vitor\Documents\Atmel Studio\7.0\ArduinoSketch4\ArduinoSketch4\ArduinoCore\Debug\libArduinoCore.a(Print.o)
 .comment       0x00000030       0x31 C:\Users\Vitor\Documents\Atmel Studio\7.0\ArduinoSketch4\ArduinoSketch4\ArduinoCore\Debug\libArduinoCore.a(wiring.o)
 .comment       0x00000030       0x31 C:\Users\Vitor\Documents\Atmel Studio\7.0\ArduinoSketch4\ArduinoSketch4\ArduinoCore\Debug\libArduinoCore.a(Adafruit_SSD1306.o)
 .comment       0x00000030       0x31 C:\Users\Vitor\Documents\Atmel Studio\7.0\ArduinoSketch4\ArduinoSketch4\ArduinoCore\Debug\libArduinoCore.a(red_beryl.o)
 .comment       0x00000030       0x31 C:\Users\Vitor\Documents\Atmel Studio\7.0\ArduinoSketch4\ArduinoSketch4\ArduinoCore\Debug\libArduinoCore.a(red_crystal.o)
 .comment       0x00000030       0x31 C:\Users\Vitor\Documents\Atmel Studio\7.0\ArduinoSketch4\ArduinoSketch4\ArduinoCore\Debug\libArduinoCore.a(red_fang.o)
 .comment       0x00000030       0x31 C:\Users\Vitor\Documents\Atmel Studio\7.0\ArduinoSketch4\ArduinoSketch4\ArduinoCore\Debug\libArduinoCore.a(red_quartz.o)
 .comment       0x00000030       0x31 C:\Users\Vitor\Documents\Atmel Studio\7.0\ArduinoSketch4\ArduinoSketch4\ArduinoCore\Debug\libArduinoCore.a(SPI.o)
 .comment       0x00000030       0x31 C:\Users\Vitor\Documents\Atmel Studio\7.0\ArduinoSketch4\ArduinoSketch4\ArduinoCore\Debug\libArduinoCore.a(Wire.o)
 .comment       0x00000030       0x31 C:\Users\Vitor\Documents\Atmel Studio\7.0\ArduinoSketch4\ArduinoSketch4\ArduinoCore\Debug\libArduinoCore.a(abi.o)
 .comment       0x00000030       0x31 C:\Users\Vitor\Documents\Atmel Studio\7.0\ArduinoSketch4\ArduinoSketch4\ArduinoCore\Debug\libArduinoCore.a(HardwareSerial1.o)
 .comment       0x00000030       0x31 C:\Users\Vitor\Documents\Atmel Studio\7.0\ArduinoSketch4\ArduinoSketch4\ArduinoCore\Debug\libArduinoCore.a(hooks.o)
 .comment       0x00000030       0x31 C:\Users\Vitor\Documents\Atmel Studio\7.0\ArduinoSketch4\ArduinoSketch4\ArduinoCore\Debug\libArduinoCore.a(wiring_analog.o)
 .comment       0x00000030       0x31 C:\Users\Vitor\Documents\Atmel Studio\7.0\ArduinoSketch4\ArduinoSketch4\ArduinoCore\Debug\libArduinoCore.a(wiring_digital.o)
 .comment       0x00000030       0x31 C:\Users\Vitor\Documents\Atmel Studio\7.0\ArduinoSketch4\ArduinoSketch4\ArduinoCore\Debug\libArduinoCore.a(WMath.o)
 .comment       0x00000030       0x31 C:\Users\Vitor\Documents\Atmel Studio\7.0\ArduinoSketch4\ArduinoSketch4\ArduinoCore\Debug\libArduinoCore.a(Adafruit_GFX.o)
 .comment       0x00000030       0x31 C:\Users\Vitor\Documents\Atmel Studio\7.0\ArduinoSketch4\ArduinoSketch4\ArduinoCore\Debug\libArduinoCore.a(AD5933.o)
 .comment       0x00000030       0x31 C:\Users\Vitor\Documents\Atmel Studio\7.0\ArduinoSketch4\ArduinoSketch4\ArduinoCore\Debug\libArduinoCore.a(DS3231.o)
 .comment       0x00000030       0x31 C:\Users\Vitor\Documents\Atmel Studio\7.0\ArduinoSketch4\ArduinoSketch4\ArduinoCore\Debug\libArduinoCore.a(twi.o)
 .comment       0x00000030       0x31 c:/program files (x86)/atmel/studio/7.0/toolchain/avr8/avr8-gnu-toolchain/bin/../lib/gcc/avr/5.4.0/../../../../avr/lib/avr6\libc.a(dtostrf.o)
 .comment       0x00000030       0x31 c:/program files (x86)/atmel/studio/7.0/toolchain/avr8/avr8-gnu-toolchain/bin/../lib/gcc/avr/5.4.0/../../../../avr/lib/avr6\libc.a(malloc.o)
 .comment       0x00000030       0x31 c:/program files (x86)/atmel/studio/7.0/toolchain/avr8/avr8-gnu-toolchain/bin/../lib/gcc/avr/5.4.0/../../../../avr/lib/avr6\libc.a(strtol.o)
 .comment       0x00000030       0x31 c:/program files (x86)/atmel/studio/7.0/toolchain/avr8/avr8-gnu-toolchain/bin/../lib/gcc/avr/5.4.0/../../../../avr/lib/avr6\libc.a(snprintf.o)
 .comment       0x00000030       0x2c c:/program files (x86)/atmel/studio/7.0/toolchain/avr8/avr8-gnu-toolchain/bin/../lib/gcc/avr/5.4.0/../../../../avr/lib/avr6\libc.a(vfprintf_std.o)
                                 0x2d (size before relaxing)
 .comment       0x0000005c       0x2d c:/program files (x86)/atmel/studio/7.0/toolchain/avr8/avr8-gnu-toolchain/bin/../lib/gcc/avr/5.4.0/../../../../avr/lib/avr6\libc.a(errno.o)
 .comment       0x0000005c       0x31 c:/program files (x86)/atmel/studio/7.0/toolchain/avr8/avr8-gnu-toolchain/bin/../lib/gcc/avr/5.4.0/../../../../avr/lib/avr6\libc.a(dtoa_prf.o)
 .comment       0x0000005c       0x31 c:/program files (x86)/atmel/studio/7.0/toolchain/avr8/avr8-gnu-toolchain/bin/../lib/gcc/avr/5.4.0/../../../../avr/lib/avr6\libc.a(fputc.o)

.note.gnu.avr.deviceinfo
                0x00000000       0x40
 .note.gnu.avr.deviceinfo
                0x00000000       0x40 C:/Program Files (x86)/Atmel/Studio/7.0/Packs/Atmel/ATmega_DFP/1.2.272/gcc/dev/atmega2560/avr6/crtatmega2560.o

.note.gnu.build-id
 *(.note.gnu.build-id)

.debug
 *(.debug)

.line
 *(.line)

.debug_srcinfo
 *(.debug_srcinfo)

.debug_sfnames
 *(.debug_sfnames)

.debug_aranges  0x00000000      0xda8
 *(.debug_aranges)
 .debug_aranges
                0x00000000       0x38 Sketch.o
 .debug_aranges
                0x00000038       0x68 C:\Users\Vitor\Documents\Atmel Studio\7.0\ArduinoSketch4\ArduinoSketch4\ArduinoCore\Debug\libArduinoCore.a(HardwareSerial.o)
 .debug_aranges
                0x000000a0       0x48 C:\Users\Vitor\Documents\Atmel Studio\7.0\ArduinoSketch4\ArduinoSketch4\ArduinoCore\Debug\libArduinoCore.a(HardwareSerial0.o)
 .debug_aranges
                0x000000e8       0x30 C:\Users\Vitor\Documents\Atmel Studio\7.0\ArduinoSketch4\ArduinoSketch4\ArduinoCore\Debug\libArduinoCore.a(main.o)
 .debug_aranges
                0x00000118       0x28 C:\Users\Vitor\Documents\Atmel Studio\7.0\ArduinoSketch4\ArduinoSketch4\ArduinoCore\Debug\libArduinoCore.a(new.o)
 .debug_aranges
                0x00000140      0x100 C:\Users\Vitor\Documents\Atmel Studio\7.0\ArduinoSketch4\ArduinoSketch4\ArduinoCore\Debug\libArduinoCore.a(Print.o)
 .debug_aranges
                0x00000240       0x48 C:\Users\Vitor\Documents\Atmel Studio\7.0\ArduinoSketch4\ArduinoSketch4\ArduinoCore\Debug\libArduinoCore.a(wiring.o)
 .debug_aranges
                0x00000288       0xb8 C:\Users\Vitor\Documents\Atmel Studio\7.0\ArduinoSketch4\ArduinoSketch4\ArduinoCore\Debug\libArduinoCore.a(Adafruit_SSD1306.o)
 .debug_aranges
                0x00000340      0x100 C:\Users\Vitor\Documents\Atmel Studio\7.0\ArduinoSketch4\ArduinoSketch4\ArduinoCore\Debug\libArduinoCore.a(red_beryl.o)
 .debug_aranges
                0x00000440       0x60 C:\Users\Vitor\Documents\Atmel Studio\7.0\ArduinoSketch4\ArduinoSketch4\ArduinoCore\Debug\libArduinoCore.a(red_crystal.o)
 .debug_aranges
                0x000004a0       0x80 C:\Users\Vitor\Documents\Atmel Studio\7.0\ArduinoSketch4\ArduinoSketch4\ArduinoCore\Debug\libArduinoCore.a(red_fang.o)
 .debug_aranges
                0x00000520       0xc0 C:\Users\Vitor\Documents\Atmel Studio\7.0\ArduinoSketch4\ArduinoSketch4\ArduinoCore\Debug\libArduinoCore.a(red_quartz.o)
 .debug_aranges
                0x000005e0       0x38 C:\Users\Vitor\Documents\Atmel Studio\7.0\ArduinoSketch4\ArduinoSketch4\ArduinoCore\Debug\libArduinoCore.a(SPI.o)
 .debug_aranges
                0x00000618       0xf8 C:\Users\Vitor\Documents\Atmel Studio\7.0\ArduinoSketch4\ArduinoSketch4\ArduinoCore\Debug\libArduinoCore.a(Wire.o)
 .debug_aranges
                0x00000710       0x20 C:\Users\Vitor\Documents\Atmel Studio\7.0\ArduinoSketch4\ArduinoSketch4\ArduinoCore\Debug\libArduinoCore.a(abi.o)
 .debug_aranges
                0x00000730       0x48 C:\Users\Vitor\Documents\Atmel Studio\7.0\ArduinoSketch4\ArduinoSketch4\ArduinoCore\Debug\libArduinoCore.a(HardwareSerial1.o)
 .debug_aranges
                0x00000778       0x20 C:\Users\Vitor\Documents\Atmel Studio\7.0\ArduinoSketch4\ArduinoSketch4\ArduinoCore\Debug\libArduinoCore.a(hooks.o)
 .debug_aranges
                0x00000798       0x30 C:\Users\Vitor\Documents\Atmel Studio\7.0\ArduinoSketch4\ArduinoSketch4\ArduinoCore\Debug\libArduinoCore.a(wiring_analog.o)
 .debug_aranges
                0x000007c8       0x38 C:\Users\Vitor\Documents\Atmel Studio\7.0\ArduinoSketch4\ArduinoSketch4\ArduinoCore\Debug\libArduinoCore.a(wiring_digital.o)
 .debug_aranges
                0x00000800       0x48 C:\Users\Vitor\Documents\Atmel Studio\7.0\ArduinoSketch4\ArduinoSketch4\ArduinoCore\Debug\libArduinoCore.a(WMath.o)
 .debug_aranges
                0x00000848      0x2a0 C:\Users\Vitor\Documents\Atmel Studio\7.0\ArduinoSketch4\ArduinoSketch4\ArduinoCore\Debug\libArduinoCore.a(Adafruit_GFX.o)
 .debug_aranges
                0x00000ae8       0xc0 C:\Users\Vitor\Documents\Atmel Studio\7.0\ArduinoSketch4\ArduinoSketch4\ArduinoCore\Debug\libArduinoCore.a(AD5933.o)
 .debug_aranges
                0x00000ba8      0x140 C:\Users\Vitor\Documents\Atmel Studio\7.0\ArduinoSketch4\ArduinoSketch4\ArduinoCore\Debug\libArduinoCore.a(DS3231.o)
 .debug_aranges
                0x00000ce8       0x80 C:\Users\Vitor\Documents\Atmel Studio\7.0\ArduinoSketch4\ArduinoSketch4\ArduinoCore\Debug\libArduinoCore.a(twi.o)
 .debug_aranges
                0x00000d68       0x20 C:/Program Files (x86)/Atmel/Studio/7.0/Packs/Atmel/ATmega_DFP/1.2.272/gcc/dev/atmega2560/avr6\libatmega2560.a(eerd_byte.o)
 .debug_aranges
                0x00000d88       0x20 C:/Program Files (x86)/Atmel/Studio/7.0/Packs/Atmel/ATmega_DFP/1.2.272/gcc/dev/atmega2560/avr6\libatmega2560.a(eewr_byte.o)

.debug_pubnames
 *(.debug_pubnames)

.debug_info     0x00000000    0x2c510
 *(.debug_info .gnu.linkonce.wi.*)
 .debug_info    0x00000000      0xbbc C:/Program Files (x86)/Atmel/Studio/7.0/Packs/Atmel/ATmega_DFP/1.2.272/gcc/dev/atmega2560/avr6/crtatmega2560.o
 .debug_info    0x00000bbc     0x1ec7 Sketch.o
 .debug_info    0x00002a83     0x1f83 C:\Users\Vitor\Documents\Atmel Studio\7.0\ArduinoSketch4\ArduinoSketch4\ArduinoCore\Debug\libArduinoCore.a(HardwareSerial.o)
 .debug_info    0x00004a06     0x1b74 C:\Users\Vitor\Documents\Atmel Studio\7.0\ArduinoSketch4\ArduinoSketch4\ArduinoCore\Debug\libArduinoCore.a(HardwareSerial0.o)
 .debug_info    0x0000657a      0x295 C:\Users\Vitor\Documents\Atmel Studio\7.0\ArduinoSketch4\ArduinoSketch4\ArduinoCore\Debug\libArduinoCore.a(main.o)
 .debug_info    0x0000680f      0x11c C:\Users\Vitor\Documents\Atmel Studio\7.0\ArduinoSketch4\ArduinoSketch4\ArduinoCore\Debug\libArduinoCore.a(new.o)
 .debug_info    0x0000692b     0x295d C:\Users\Vitor\Documents\Atmel Studio\7.0\ArduinoSketch4\ArduinoSketch4\ArduinoCore\Debug\libArduinoCore.a(Print.o)
 .debug_info    0x00009288      0x329 C:\Users\Vitor\Documents\Atmel Studio\7.0\ArduinoSketch4\ArduinoSketch4\ArduinoCore\Debug\libArduinoCore.a(wiring.o)
 .debug_info    0x000095b1     0x23c7 C:\Users\Vitor\Documents\Atmel Studio\7.0\ArduinoSketch4\ArduinoSketch4\ArduinoCore\Debug\libArduinoCore.a(Adafruit_SSD1306.o)
 .debug_info    0x0000b978     0x851c C:\Users\Vitor\Documents\Atmel Studio\7.0\ArduinoSketch4\ArduinoSketch4\ArduinoCore\Debug\libArduinoCore.a(red_beryl.o)
 .debug_info    0x00013e94     0x1431 C:\Users\Vitor\Documents\Atmel Studio\7.0\ArduinoSketch4\ArduinoSketch4\ArduinoCore\Debug\libArduinoCore.a(red_crystal.o)
 .debug_info    0x000152c5     0x4e4c C:\Users\Vitor\Documents\Atmel Studio\7.0\ArduinoSketch4\ArduinoSketch4\ArduinoCore\Debug\libArduinoCore.a(red_fang.o)
 .debug_info    0x0001a111     0x189d C:\Users\Vitor\Documents\Atmel Studio\7.0\ArduinoSketch4\ArduinoSketch4\ArduinoCore\Debug\libArduinoCore.a(red_quartz.o)
 .debug_info    0x0001b9ae      0x6cd C:\Users\Vitor\Documents\Atmel Studio\7.0\ArduinoSketch4\ArduinoSketch4\ArduinoCore\Debug\libArduinoCore.a(SPI.o)
 .debug_info    0x0001c07b     0x27b4 C:\Users\Vitor\Documents\Atmel Studio\7.0\ArduinoSketch4\ArduinoSketch4\ArduinoCore\Debug\libArduinoCore.a(Wire.o)
 .debug_info    0x0001e82f       0x76 C:\Users\Vitor\Documents\Atmel Studio\7.0\ArduinoSketch4\ArduinoSketch4\ArduinoCore\Debug\libArduinoCore.a(abi.o)
 .debug_info    0x0001e8a5     0x1b74 C:\Users\Vitor\Documents\Atmel Studio\7.0\ArduinoSketch4\ArduinoSketch4\ArduinoCore\Debug\libArduinoCore.a(HardwareSerial1.o)
 .debug_info    0x00020419       0x3e C:\Users\Vitor\Documents\Atmel Studio\7.0\ArduinoSketch4\ArduinoSketch4\ArduinoCore\Debug\libArduinoCore.a(hooks.o)
 .debug_info    0x00020457      0x2cd C:\Users\Vitor\Documents\Atmel Studio\7.0\ArduinoSketch4\ArduinoSketch4\ArduinoCore\Debug\libArduinoCore.a(wiring_analog.o)
 .debug_info    0x00020724      0x63a C:\Users\Vitor\Documents\Atmel Studio\7.0\ArduinoSketch4\ArduinoSketch4\ArduinoCore\Debug\libArduinoCore.a(wiring_digital.o)
 .debug_info    0x00020d5e      0x230 C:\Users\Vitor\Documents\Atmel Studio\7.0\ArduinoSketch4\ArduinoSketch4\ArduinoCore\Debug\libArduinoCore.a(WMath.o)
 .debug_info    0x00020f8e     0x7317 C:\Users\Vitor\Documents\Atmel Studio\7.0\ArduinoSketch4\ArduinoSketch4\ArduinoCore\Debug\libArduinoCore.a(Adafruit_GFX.o)
 .debug_info    0x000282a5     0x155b C:\Users\Vitor\Documents\Atmel Studio\7.0\ArduinoSketch4\ArduinoSketch4\ArduinoCore\Debug\libArduinoCore.a(AD5933.o)
 .debug_info    0x00029800     0x257a C:\Users\Vitor\Documents\Atmel Studio\7.0\ArduinoSketch4\ArduinoSketch4\ArduinoCore\Debug\libArduinoCore.a(DS3231.o)
 .debug_info    0x0002bd7a      0x662 C:\Users\Vitor\Documents\Atmel Studio\7.0\ArduinoSketch4\ArduinoSketch4\ArduinoCore\Debug\libArduinoCore.a(twi.o)
 .debug_info    0x0002c3dc       0x9a C:/Program Files (x86)/Atmel/Studio/7.0/Packs/Atmel/ATmega_DFP/1.2.272/gcc/dev/atmega2560/avr6\libatmega2560.a(eerd_byte.o)
 .debug_info    0x0002c476       0x9a C:/Program Files (x86)/Atmel/Studio/7.0/Packs/Atmel/ATmega_DFP/1.2.272/gcc/dev/atmega2560/avr6\libatmega2560.a(eewr_byte.o)

.debug_abbrev   0x00000000     0x58b4
 *(.debug_abbrev)
 .debug_abbrev  0x00000000      0xb1a C:/Program Files (x86)/Atmel/Studio/7.0/Packs/Atmel/ATmega_DFP/1.2.272/gcc/dev/atmega2560/avr6/crtatmega2560.o
 .debug_abbrev  0x00000b1a      0x3f3 Sketch.o
 .debug_abbrev  0x00000f0d      0x432 C:\Users\Vitor\Documents\Atmel Studio\7.0\ArduinoSketch4\ArduinoSketch4\ArduinoCore\Debug\libArduinoCore.a(HardwareSerial.o)
 .debug_abbrev  0x0000133f      0x3ce C:\Users\Vitor\Documents\Atmel Studio\7.0\ArduinoSketch4\ArduinoSketch4\ArduinoCore\Debug\libArduinoCore.a(HardwareSerial0.o)
 .debug_abbrev  0x0000170d      0x12d C:\Users\Vitor\Documents\Atmel Studio\7.0\ArduinoSketch4\ArduinoSketch4\ArduinoCore\Debug\libArduinoCore.a(main.o)
 .debug_abbrev  0x0000183a       0xce C:\Users\Vitor\Documents\Atmel Studio\7.0\ArduinoSketch4\ArduinoSketch4\ArduinoCore\Debug\libArduinoCore.a(new.o)
 .debug_abbrev  0x00001908      0x47a C:\Users\Vitor\Documents\Atmel Studio\7.0\ArduinoSketch4\ArduinoSketch4\ArduinoCore\Debug\libArduinoCore.a(Print.o)
 .debug_abbrev  0x00001d82      0x146 C:\Users\Vitor\Documents\Atmel Studio\7.0\ArduinoSketch4\ArduinoSketch4\ArduinoCore\Debug\libArduinoCore.a(wiring.o)
 .debug_abbrev  0x00001ec8      0x58a C:\Users\Vitor\Documents\Atmel Studio\7.0\ArduinoSketch4\ArduinoSketch4\ArduinoCore\Debug\libArduinoCore.a(Adafruit_SSD1306.o)
 .debug_abbrev  0x00002452      0x5c3 C:\Users\Vitor\Documents\Atmel Studio\7.0\ArduinoSketch4\ArduinoSketch4\ArduinoCore\Debug\libArduinoCore.a(red_beryl.o)
 .debug_abbrev  0x00002a15      0x3d8 C:\Users\Vitor\Documents\Atmel Studio\7.0\ArduinoSketch4\ArduinoSketch4\ArduinoCore\Debug\libArduinoCore.a(red_crystal.o)
 .debug_abbrev  0x00002ded      0x5a1 C:\Users\Vitor\Documents\Atmel Studio\7.0\ArduinoSketch4\ArduinoSketch4\ArduinoCore\Debug\libArduinoCore.a(red_fang.o)
 .debug_abbrev  0x0000338e      0x375 C:\Users\Vitor\Documents\Atmel Studio\7.0\ArduinoSketch4\ArduinoSketch4\ArduinoCore\Debug\libArduinoCore.a(red_quartz.o)
 .debug_abbrev  0x00003703      0x283 C:\Users\Vitor\Documents\Atmel Studio\7.0\ArduinoSketch4\ArduinoSketch4\ArduinoCore\Debug\libArduinoCore.a(SPI.o)
 .debug_abbrev  0x00003986      0x581 C:\Users\Vitor\Documents\Atmel Studio\7.0\ArduinoSketch4\ArduinoSketch4\ArduinoCore\Debug\libArduinoCore.a(Wire.o)
 .debug_abbrev  0x00003f07       0x6d C:\Users\Vitor\Documents\Atmel Studio\7.0\ArduinoSketch4\ArduinoSketch4\ArduinoCore\Debug\libArduinoCore.a(abi.o)
 .debug_abbrev  0x00003f74      0x3ce C:\Users\Vitor\Documents\Atmel Studio\7.0\ArduinoSketch4\ArduinoSketch4\ArduinoCore\Debug\libArduinoCore.a(HardwareSerial1.o)
 .debug_abbrev  0x00004342       0x2a C:\Users\Vitor\Documents\Atmel Studio\7.0\ArduinoSketch4\ArduinoSketch4\ArduinoCore\Debug\libArduinoCore.a(hooks.o)
 .debug_abbrev  0x0000436c      0x17a C:\Users\Vitor\Documents\Atmel Studio\7.0\ArduinoSketch4\ArduinoSketch4\ArduinoCore\Debug\libArduinoCore.a(wiring_analog.o)
 .debug_abbrev  0x000044e6      0x15a C:\Users\Vitor\Documents\Atmel Studio\7.0\ArduinoSketch4\ArduinoSketch4\ArduinoCore\Debug\libArduinoCore.a(wiring_digital.o)
 .debug_abbrev  0x00004640      0x12b C:\Users\Vitor\Documents\Atmel Studio\7.0\ArduinoSketch4\ArduinoSketch4\ArduinoCore\Debug\libArduinoCore.a(WMath.o)
 .debug_abbrev  0x0000476b      0x60c C:\Users\Vitor\Documents\Atmel Studio\7.0\ArduinoSketch4\ArduinoSketch4\ArduinoCore\Debug\libArduinoCore.a(Adafruit_GFX.o)
 .debug_abbrev  0x00004d77      0x44b C:\Users\Vitor\Documents\Atmel Studio\7.0\ArduinoSketch4\ArduinoSketch4\ArduinoCore\Debug\libArduinoCore.a(AD5933.o)
 .debug_abbrev  0x000051c2      0x46a C:\Users\Vitor\Documents\Atmel Studio\7.0\ArduinoSketch4\ArduinoSketch4\ArduinoCore\Debug\libArduinoCore.a(DS3231.o)
 .debug_abbrev  0x0000562c      0x260 C:\Users\Vitor\Documents\Atmel Studio\7.0\ArduinoSketch4\ArduinoSketch4\ArduinoCore\Debug\libArduinoCore.a(twi.o)
 .debug_abbrev  0x0000588c       0x14 C:/Program Files (x86)/Atmel/Studio/7.0/Packs/Atmel/ATmega_DFP/1.2.272/gcc/dev/atmega2560/avr6\libatmega2560.a(eerd_byte.o)
 .debug_abbrev  0x000058a0       0x14 C:/Program Files (x86)/Atmel/Studio/7.0/Packs/Atmel/ATmega_DFP/1.2.272/gcc/dev/atmega2560/avr6\libatmega2560.a(eewr_byte.o)

.debug_line     0x00000000     0xb6b4
 *(.debug_line .debug_line.* .debug_line_end)
 .debug_line    0x00000000      0x1f9 C:/Program Files (x86)/Atmel/Studio/7.0/Packs/Atmel/ATmega_DFP/1.2.272/gcc/dev/atmega2560/avr6/crtatmega2560.o
 .debug_line    0x000001f9      0x498 Sketch.o
 .debug_line    0x00000691      0x489 C:\Users\Vitor\Documents\Atmel Studio\7.0\ArduinoSketch4\ArduinoSketch4\ArduinoCore\Debug\libArduinoCore.a(HardwareSerial.o)
 .debug_line    0x00000b1a      0x288 C:\Users\Vitor\Documents\Atmel Studio\7.0\ArduinoSketch4\ArduinoSketch4\ArduinoCore\Debug\libArduinoCore.a(HardwareSerial0.o)
 .debug_line    0x00000da2      0x161 C:\Users\Vitor\Documents\Atmel Studio\7.0\ArduinoSketch4\ArduinoSketch4\ArduinoCore\Debug\libArduinoCore.a(main.o)
 .debug_line    0x00000f03      0x12f C:\Users\Vitor\Documents\Atmel Studio\7.0\ArduinoSketch4\ArduinoSketch4\ArduinoCore\Debug\libArduinoCore.a(new.o)
 .debug_line    0x00001032      0x681 C:\Users\Vitor\Documents\Atmel Studio\7.0\ArduinoSketch4\ArduinoSketch4\ArduinoCore\Debug\libArduinoCore.a(Print.o)
 .debug_line    0x000016b3      0x2cb C:\Users\Vitor\Documents\Atmel Studio\7.0\ArduinoSketch4\ArduinoSketch4\ArduinoCore\Debug\libArduinoCore.a(wiring.o)
 .debug_line    0x0000197e      0xc29 C:\Users\Vitor\Documents\Atmel Studio\7.0\ArduinoSketch4\ArduinoSketch4\ArduinoCore\Debug\libArduinoCore.a(Adafruit_SSD1306.o)
 .debug_line    0x000025a7     0x27d3 C:\Users\Vitor\Documents\Atmel Studio\7.0\ArduinoSketch4\ArduinoSketch4\ArduinoCore\Debug\libArduinoCore.a(red_beryl.o)
 .debug_line    0x00004d7a      0x69c C:\Users\Vitor\Documents\Atmel Studio\7.0\ArduinoSketch4\ArduinoSketch4\ArduinoCore\Debug\libArduinoCore.a(red_crystal.o)
 .debug_line    0x00005416     0x10b0 C:\Users\Vitor\Documents\Atmel Studio\7.0\ArduinoSketch4\ArduinoSketch4\ArduinoCore\Debug\libArduinoCore.a(red_fang.o)
 .debug_line    0x000064c6      0x5cd C:\Users\Vitor\Documents\Atmel Studio\7.0\ArduinoSketch4\ArduinoSketch4\ArduinoCore\Debug\libArduinoCore.a(red_quartz.o)
 .debug_line    0x00006a93      0x2eb C:\Users\Vitor\Documents\Atmel Studio\7.0\ArduinoSketch4\ArduinoSketch4\ArduinoCore\Debug\libArduinoCore.a(SPI.o)
 .debug_line    0x00006d7e      0x5ec C:\Users\Vitor\Documents\Atmel Studio\7.0\ArduinoSketch4\ArduinoSketch4\ArduinoCore\Debug\libArduinoCore.a(Wire.o)
 .debug_line    0x0000736a       0xa9 C:\Users\Vitor\Documents\Atmel Studio\7.0\ArduinoSketch4\ArduinoSketch4\ArduinoCore\Debug\libArduinoCore.a(abi.o)
 .debug_line    0x00007413      0x288 C:\Users\Vitor\Documents\Atmel Studio\7.0\ArduinoSketch4\ArduinoSketch4\ArduinoCore\Debug\libArduinoCore.a(HardwareSerial1.o)
 .debug_line    0x0000769b       0x41 C:\Users\Vitor\Documents\Atmel Studio\7.0\ArduinoSketch4\ArduinoSketch4\ArduinoCore\Debug\libArduinoCore.a(hooks.o)
 .debug_line    0x000076dc      0x2c4 C:\Users\Vitor\Documents\Atmel Studio\7.0\ArduinoSketch4\ArduinoSketch4\ArduinoCore\Debug\libArduinoCore.a(wiring_analog.o)
 .debug_line    0x000079a0      0x284 C:\Users\Vitor\Documents\Atmel Studio\7.0\ArduinoSketch4\ArduinoSketch4\ArduinoCore\Debug\libArduinoCore.a(wiring_digital.o)
 .debug_line    0x00007c24      0x143 C:\Users\Vitor\Documents\Atmel Studio\7.0\ArduinoSketch4\ArduinoSketch4\ArduinoCore\Debug\libArduinoCore.a(WMath.o)
 .debug_line    0x00007d67     0x1deb C:\Users\Vitor\Documents\Atmel Studio\7.0\ArduinoSketch4\ArduinoSketch4\ArduinoCore\Debug\libArduinoCore.a(Adafruit_GFX.o)
 .debug_line    0x00009b52      0x8d2 C:\Users\Vitor\Documents\Atmel Studio\7.0\ArduinoSketch4\ArduinoSketch4\ArduinoCore\Debug\libArduinoCore.a(AD5933.o)
 .debug_line    0x0000a424      0xc87 C:\Users\Vitor\Documents\Atmel Studio\7.0\ArduinoSketch4\ArduinoSketch4\ArduinoCore\Debug\libArduinoCore.a(DS3231.o)
 .debug_line    0x0000b0ab      0x4f1 C:\Users\Vitor\Documents\Atmel Studio\7.0\ArduinoSketch4\ArduinoSketch4\ArduinoCore\Debug\libArduinoCore.a(twi.o)
 .debug_line    0x0000b59c       0x7a C:/Program Files (x86)/Atmel/Studio/7.0/Packs/Atmel/ATmega_DFP/1.2.272/gcc/dev/atmega2560/avr6\libatmega2560.a(eerd_byte.o)
 .debug_line    0x0000b616       0x9e C:/Program Files (x86)/Atmel/Studio/7.0/Packs/Atmel/ATmega_DFP/1.2.272/gcc/dev/atmega2560/avr6\libatmega2560.a(eewr_byte.o)

.debug_frame    0x00000000     0x389c
 *(.debug_frame)
 .debug_frame   0x00000000       0x70 Sketch.o
 .debug_frame   0x00000070      0x110 C:\Users\Vitor\Documents\Atmel Studio\7.0\ArduinoSketch4\ArduinoSketch4\ArduinoCore\Debug\libArduinoCore.a(HardwareSerial.o)
 .debug_frame   0x00000180       0xe0 C:\Users\Vitor\Documents\Atmel Studio\7.0\ArduinoSketch4\ArduinoSketch4\ArduinoCore\Debug\libArduinoCore.a(HardwareSerial0.o)
 .debug_frame   0x00000260       0x54 C:\Users\Vitor\Documents\Atmel Studio\7.0\ArduinoSketch4\ArduinoSketch4\ArduinoCore\Debug\libArduinoCore.a(main.o)
 .debug_frame   0x000002b4       0x54 C:\Users\Vitor\Documents\Atmel Studio\7.0\ArduinoSketch4\ArduinoSketch4\ArduinoCore\Debug\libArduinoCore.a(new.o)
 .debug_frame   0x00000308      0x3ac C:\Users\Vitor\Documents\Atmel Studio\7.0\ArduinoSketch4\ArduinoSketch4\ArduinoCore\Debug\libArduinoCore.a(Print.o)
 .debug_frame   0x000006b4       0xc4 C:\Users\Vitor\Documents\Atmel Studio\7.0\ArduinoSketch4\ArduinoSketch4\ArduinoCore\Debug\libArduinoCore.a(wiring.o)
 .debug_frame   0x00000778      0x2ac C:\Users\Vitor\Documents\Atmel Studio\7.0\ArduinoSketch4\ArduinoSketch4\ArduinoCore\Debug\libArduinoCore.a(Adafruit_SSD1306.o)
 .debug_frame   0x00000a24      0x680 C:\Users\Vitor\Documents\Atmel Studio\7.0\ArduinoSketch4\ArduinoSketch4\ArduinoCore\Debug\libArduinoCore.a(red_beryl.o)
 .debug_frame   0x000010a4      0x190 C:\Users\Vitor\Documents\Atmel Studio\7.0\ArduinoSketch4\ArduinoSketch4\ArduinoCore\Debug\libArduinoCore.a(red_crystal.o)
 .debug_frame   0x00001234      0x304 C:\Users\Vitor\Documents\Atmel Studio\7.0\ArduinoSketch4\ArduinoSketch4\ArduinoCore\Debug\libArduinoCore.a(red_fang.o)
 .debug_frame   0x00001538      0x1f4 C:\Users\Vitor\Documents\Atmel Studio\7.0\ArduinoSketch4\ArduinoSketch4\ArduinoCore\Debug\libArduinoCore.a(red_quartz.o)
 .debug_frame   0x0000172c       0x5c C:\Users\Vitor\Documents\Atmel Studio\7.0\ArduinoSketch4\ArduinoSketch4\ArduinoCore\Debug\libArduinoCore.a(SPI.o)
 .debug_frame   0x00001788      0x284 C:\Users\Vitor\Documents\Atmel Studio\7.0\ArduinoSketch4\ArduinoSketch4\ArduinoCore\Debug\libArduinoCore.a(Wire.o)
 .debug_frame   0x00001a0c       0x34 C:\Users\Vitor\Documents\Atmel Studio\7.0\ArduinoSketch4\ArduinoSketch4\ArduinoCore\Debug\libArduinoCore.a(abi.o)
 .debug_frame   0x00001a40       0xe0 C:\Users\Vitor\Documents\Atmel Studio\7.0\ArduinoSketch4\ArduinoSketch4\ArduinoCore\Debug\libArduinoCore.a(HardwareSerial1.o)
 .debug_frame   0x00001b20       0x24 C:\Users\Vitor\Documents\Atmel Studio\7.0\ArduinoSketch4\ArduinoSketch4\ArduinoCore\Debug\libArduinoCore.a(hooks.o)
 .debug_frame   0x00001b44       0x54 C:\Users\Vitor\Documents\Atmel Studio\7.0\ArduinoSketch4\ArduinoSketch4\ArduinoCore\Debug\libArduinoCore.a(wiring_analog.o)
 .debug_frame   0x00001b98       0x7c C:\Users\Vitor\Documents\Atmel Studio\7.0\ArduinoSketch4\ArduinoSketch4\ArduinoCore\Debug\libArduinoCore.a(wiring_digital.o)
 .debug_frame   0x00001c14       0xf4 C:\Users\Vitor\Documents\Atmel Studio\7.0\ArduinoSketch4\ArduinoSketch4\ArduinoCore\Debug\libArduinoCore.a(WMath.o)
 .debug_frame   0x00001d08     0x1218 C:\Users\Vitor\Documents\Atmel Studio\7.0\ArduinoSketch4\ArduinoSketch4\ArduinoCore\Debug\libArduinoCore.a(Adafruit_GFX.o)
 .debug_frame   0x00002f20      0x340 C:\Users\Vitor\Documents\Atmel Studio\7.0\ArduinoSketch4\ArduinoSketch4\ArduinoCore\Debug\libArduinoCore.a(AD5933.o)
 .debug_frame   0x00003260      0x508 C:\Users\Vitor\Documents\Atmel Studio\7.0\ArduinoSketch4\ArduinoSketch4\ArduinoCore\Debug\libArduinoCore.a(DS3231.o)
 .debug_frame   0x00003768      0x134 C:\Users\Vitor\Documents\Atmel Studio\7.0\ArduinoSketch4\ArduinoSketch4\ArduinoCore\Debug\libArduinoCore.a(twi.o)

.debug_str      0x00000000     0x620c
 *(.debug_str)
 .debug_str     0x00000000      0x3e6 C:/Program Files (x86)/Atmel/Studio/7.0/Packs/Atmel/ATmega_DFP/1.2.272/gcc/dev/atmega2560/avr6/crtatmega2560.o
 .debug_str     0x000003e6     0x198d Sketch.o
                               0x1a89 (size before relaxing)
 .debug_str     0x00001d73     0x1396 C:\Users\Vitor\Documents\Atmel Studio\7.0\ArduinoSketch4\ArduinoSketch4\ArduinoCore\Debug\libArduinoCore.a(HardwareSerial.o)
                               0x16d1 (size before relaxing)
 .debug_str     0x00003109       0x86 C:\Users\Vitor\Documents\Atmel Studio\7.0\ArduinoSketch4\ArduinoSketch4\ArduinoCore\Debug\libArduinoCore.a(HardwareSerial0.o)
                               0x1415 (size before relaxing)
 .debug_str     0x0000318f       0x37 C:\Users\Vitor\Documents\Atmel Studio\7.0\ArduinoSketch4\ArduinoSketch4\ArduinoCore\Debug\libArduinoCore.a(main.o)
                                0x2c1 (size before relaxing)
 .debug_str     0x000031c6       0x50 C:\Users\Vitor\Documents\Atmel Studio\7.0\ArduinoSketch4\ArduinoSketch4\ArduinoCore\Debug\libArduinoCore.a(new.o)
                                0x1d7 (size before relaxing)
 .debug_str     0x00003216      0x3ce C:\Users\Vitor\Documents\Atmel Studio\7.0\ArduinoSketch4\ArduinoSketch4\ArduinoCore\Debug\libArduinoCore.a(Print.o)
                               0x124f (size before relaxing)
 .debug_str     0x000035e4      0x164 C:\Users\Vitor\Documents\Atmel Studio\7.0\ArduinoSketch4\ArduinoSketch4\ArduinoCore\Debug\libArduinoCore.a(wiring.o)
                                0x257 (size before relaxing)
 .debug_str     0x00003748      0xa1f C:\Users\Vitor\Documents\Atmel Studio\7.0\ArduinoSketch4\ArduinoSketch4\ArduinoCore\Debug\libArduinoCore.a(Adafruit_SSD1306.o)
                                0xe32 (size before relaxing)
 .debug_str     0x00004167      0x3db C:\Users\Vitor\Documents\Atmel Studio\7.0\ArduinoSketch4\ArduinoSketch4\ArduinoCore\Debug\libArduinoCore.a(red_beryl.o)
                               0x1d44 (size before relaxing)
 .debug_str     0x00004542       0xb5 C:\Users\Vitor\Documents\Atmel Studio\7.0\ArduinoSketch4\ArduinoSketch4\ArduinoCore\Debug\libArduinoCore.a(red_crystal.o)
                                0x975 (size before relaxing)
 .debug_str     0x000045f7       0xb2 C:\Users\Vitor\Documents\Atmel Studio\7.0\ArduinoSketch4\ArduinoSketch4\ArduinoCore\Debug\libArduinoCore.a(red_fang.o)
                               0x1bd9 (size before relaxing)
 .debug_str     0x000046a9       0x56 C:\Users\Vitor\Documents\Atmel Studio\7.0\ArduinoSketch4\ArduinoSketch4\ArduinoCore\Debug\libArduinoCore.a(red_quartz.o)
                                0xb21 (size before relaxing)
 .debug_str     0x000046ff       0xb0 C:\Users\Vitor\Documents\Atmel Studio\7.0\ArduinoSketch4\ArduinoSketch4\ArduinoCore\Debug\libArduinoCore.a(SPI.o)
                                0x6ba (size before relaxing)
 .debug_str     0x000047af      0x4c8 C:\Users\Vitor\Documents\Atmel Studio\7.0\ArduinoSketch4\ArduinoSketch4\ArduinoCore\Debug\libArduinoCore.a(Wire.o)
                               0x18ce (size before relaxing)
 .debug_str     0x00004c77       0x30 C:\Users\Vitor\Documents\Atmel Studio\7.0\ArduinoSketch4\ArduinoSketch4\ArduinoCore\Debug\libArduinoCore.a(abi.o)
                                0x1ab (size before relaxing)
 .debug_str     0x00004ca7       0x47 C:\Users\Vitor\Documents\Atmel Studio\7.0\ArduinoSketch4\ArduinoSketch4\ArduinoCore\Debug\libArduinoCore.a(HardwareSerial1.o)
                               0x1416 (size before relaxing)
 .debug_str     0x00004cee       0x1c C:\Users\Vitor\Documents\Atmel Studio\7.0\ArduinoSketch4\ArduinoSketch4\ArduinoCore\Debug\libArduinoCore.a(hooks.o)
                                0x14c (size before relaxing)
 .debug_str     0x00004d0a       0x6c C:\Users\Vitor\Documents\Atmel Studio\7.0\ArduinoSketch4\ArduinoSketch4\ArduinoCore\Debug\libArduinoCore.a(wiring_analog.o)
                                0x25b (size before relaxing)
 .debug_str     0x00004d76       0x3a C:\Users\Vitor\Documents\Atmel Studio\7.0\ArduinoSketch4\ArduinoSketch4\ArduinoCore\Debug\libArduinoCore.a(wiring_digital.o)
                                0x2bc (size before relaxing)
 .debug_str     0x00004db0       0xac C:\Users\Vitor\Documents\Atmel Studio\7.0\ArduinoSketch4\ArduinoSketch4\ArduinoCore\Debug\libArduinoCore.a(WMath.o)
                                0x25a (size before relaxing)
 .debug_str     0x00004e5c      0xf07 C:\Users\Vitor\Documents\Atmel Studio\7.0\ArduinoSketch4\ArduinoSketch4\ArduinoCore\Debug\libArduinoCore.a(Adafruit_GFX.o)
                               0x206c (size before relaxing)
 .debug_str     0x00005d63       0xb8 C:\Users\Vitor\Documents\Atmel Studio\7.0\ArduinoSketch4\ArduinoSketch4\ArduinoCore\Debug\libArduinoCore.a(AD5933.o)
                                0x8f1 (size before relaxing)
 .debug_str     0x00005e1b      0x2aa C:\Users\Vitor\Documents\Atmel Studio\7.0\ArduinoSketch4\ArduinoSketch4\ArduinoCore\Debug\libArduinoCore.a(DS3231.o)
                                0xb2e (size before relaxing)
 .debug_str     0x000060c5      0x147 C:\Users\Vitor\Documents\Atmel Studio\7.0\ArduinoSketch4\ArduinoSketch4\ArduinoCore\Debug\libArduinoCore.a(twi.o)
                                0x3d7 (size before relaxing)

.debug_loc      0x00000000    0x16fc7
 *(.debug_loc)
 .debug_loc     0x00000000       0x8d Sketch.o
 .debug_loc     0x0000008d      0x482 C:\Users\Vitor\Documents\Atmel Studio\7.0\ArduinoSketch4\ArduinoSketch4\ArduinoCore\Debug\libArduinoCore.a(HardwareSerial.o)
 .debug_loc     0x0000050f      0x1b0 C:\Users\Vitor\Documents\Atmel Studio\7.0\ArduinoSketch4\ArduinoSketch4\ArduinoCore\Debug\libArduinoCore.a(HardwareSerial0.o)
 .debug_loc     0x000006bf       0x4c C:\Users\Vitor\Documents\Atmel Studio\7.0\ArduinoSketch4\ArduinoSketch4\ArduinoCore\Debug\libArduinoCore.a(new.o)
 .debug_loc     0x0000070b     0x1c87 C:\Users\Vitor\Documents\Atmel Studio\7.0\ArduinoSketch4\ArduinoSketch4\ArduinoCore\Debug\libArduinoCore.a(Print.o)
 .debug_loc     0x00002392      0x28d C:\Users\Vitor\Documents\Atmel Studio\7.0\ArduinoSketch4\ArduinoSketch4\ArduinoCore\Debug\libArduinoCore.a(wiring.o)
 .debug_loc     0x0000261f     0x2247 C:\Users\Vitor\Documents\Atmel Studio\7.0\ArduinoSketch4\ArduinoSketch4\ArduinoCore\Debug\libArduinoCore.a(Adafruit_SSD1306.o)
 .debug_loc     0x00004866     0x1bfc C:\Users\Vitor\Documents\Atmel Studio\7.0\ArduinoSketch4\ArduinoSketch4\ArduinoCore\Debug\libArduinoCore.a(red_beryl.o)
 .debug_loc     0x00006462      0x8d3 C:\Users\Vitor\Documents\Atmel Studio\7.0\ArduinoSketch4\ArduinoSketch4\ArduinoCore\Debug\libArduinoCore.a(red_crystal.o)
 .debug_loc     0x00006d35     0x1236 C:\Users\Vitor\Documents\Atmel Studio\7.0\ArduinoSketch4\ArduinoSketch4\ArduinoCore\Debug\libArduinoCore.a(red_fang.o)
 .debug_loc     0x00007f6b      0xa4f C:\Users\Vitor\Documents\Atmel Studio\7.0\ArduinoSketch4\ArduinoSketch4\ArduinoCore\Debug\libArduinoCore.a(red_quartz.o)
 .debug_loc     0x000089ba      0x1f0 C:\Users\Vitor\Documents\Atmel Studio\7.0\ArduinoSketch4\ArduinoSketch4\ArduinoCore\Debug\libArduinoCore.a(SPI.o)
 .debug_loc     0x00008baa      0xbfd C:\Users\Vitor\Documents\Atmel Studio\7.0\ArduinoSketch4\ArduinoSketch4\ArduinoCore\Debug\libArduinoCore.a(Wire.o)
 .debug_loc     0x000097a7      0x1b0 C:\Users\Vitor\Documents\Atmel Studio\7.0\ArduinoSketch4\ArduinoSketch4\ArduinoCore\Debug\libArduinoCore.a(HardwareSerial1.o)
 .debug_loc     0x00009957      0x11c C:\Users\Vitor\Documents\Atmel Studio\7.0\ArduinoSketch4\ArduinoSketch4\ArduinoCore\Debug\libArduinoCore.a(wiring_analog.o)
 .debug_loc     0x00009a73      0x56b C:\Users\Vitor\Documents\Atmel Studio\7.0\ArduinoSketch4\ArduinoSketch4\ArduinoCore\Debug\libArduinoCore.a(wiring_digital.o)
 .debug_loc     0x00009fde      0x3d6 C:\Users\Vitor\Documents\Atmel Studio\7.0\ArduinoSketch4\ArduinoSketch4\ArduinoCore\Debug\libArduinoCore.a(WMath.o)
 .debug_loc     0x0000a3b4     0x975a C:\Users\Vitor\Documents\Atmel Studio\7.0\ArduinoSketch4\ArduinoSketch4\ArduinoCore\Debug\libArduinoCore.a(Adafruit_GFX.o)
 .debug_loc     0x00013b0e      0xfdf C:\Users\Vitor\Documents\Atmel Studio\7.0\ArduinoSketch4\ArduinoSketch4\ArduinoCore\Debug\libArduinoCore.a(AD5933.o)
 .debug_loc     0x00014aed     0x20f4 C:\Users\Vitor\Documents\Atmel Studio\7.0\ArduinoSketch4\ArduinoSketch4\ArduinoCore\Debug\libArduinoCore.a(DS3231.o)
 .debug_loc     0x00016be1      0x3e6 C:\Users\Vitor\Documents\Atmel Studio\7.0\ArduinoSketch4\ArduinoSketch4\ArduinoCore\Debug\libArduinoCore.a(twi.o)

.debug_macinfo
 *(.debug_macinfo)

.debug_weaknames
 *(.debug_weaknames)

.debug_funcnames
 *(.debug_funcnames)

.debug_typenames
 *(.debug_typenames)

.debug_varnames
 *(.debug_varnames)

.debug_pubtypes
 *(.debug_pubtypes)

.debug_ranges   0x00000000      0xf30
 *(.debug_ranges)
 .debug_ranges  0x00000000       0x28 Sketch.o
 .debug_ranges  0x00000028       0x58 C:\Users\Vitor\Documents\Atmel Studio\7.0\ArduinoSketch4\ArduinoSketch4\ArduinoCore\Debug\libArduinoCore.a(HardwareSerial.o)
 .debug_ranges  0x00000080       0x38 C:\Users\Vitor\Documents\Atmel Studio\7.0\ArduinoSketch4\ArduinoSketch4\ArduinoCore\Debug\libArduinoCore.a(HardwareSerial0.o)
 .debug_ranges  0x000000b8       0x20 C:\Users\Vitor\Documents\Atmel Studio\7.0\ArduinoSketch4\ArduinoSketch4\ArduinoCore\Debug\libArduinoCore.a(main.o)
 .debug_ranges  0x000000d8       0x18 C:\Users\Vitor\Documents\Atmel Studio\7.0\ArduinoSketch4\ArduinoSketch4\ArduinoCore\Debug\libArduinoCore.a(new.o)
 .debug_ranges  0x000000f0      0x120 C:\Users\Vitor\Documents\Atmel Studio\7.0\ArduinoSketch4\ArduinoSketch4\ArduinoCore\Debug\libArduinoCore.a(Print.o)
 .debug_ranges  0x00000210       0x38 C:\Users\Vitor\Documents\Atmel Studio\7.0\ArduinoSketch4\ArduinoSketch4\ArduinoCore\Debug\libArduinoCore.a(wiring.o)
 .debug_ranges  0x00000248       0xf0 C:\Users\Vitor\Documents\Atmel Studio\7.0\ArduinoSketch4\ArduinoSketch4\ArduinoCore\Debug\libArduinoCore.a(Adafruit_SSD1306.o)
 .debug_ranges  0x00000338      0x140 C:\Users\Vitor\Documents\Atmel Studio\7.0\ArduinoSketch4\ArduinoSketch4\ArduinoCore\Debug\libArduinoCore.a(red_beryl.o)
 .debug_ranges  0x00000478       0x68 C:\Users\Vitor\Documents\Atmel Studio\7.0\ArduinoSketch4\ArduinoSketch4\ArduinoCore\Debug\libArduinoCore.a(red_crystal.o)
 .debug_ranges  0x000004e0       0xf8 C:\Users\Vitor\Documents\Atmel Studio\7.0\ArduinoSketch4\ArduinoSketch4\ArduinoCore\Debug\libArduinoCore.a(red_fang.o)
 .debug_ranges  0x000005d8       0xb0 C:\Users\Vitor\Documents\Atmel Studio\7.0\ArduinoSketch4\ArduinoSketch4\ArduinoCore\Debug\libArduinoCore.a(red_quartz.o)
 .debug_ranges  0x00000688       0x28 C:\Users\Vitor\Documents\Atmel Studio\7.0\ArduinoSketch4\ArduinoSketch4\ArduinoCore\Debug\libArduinoCore.a(SPI.o)
 .debug_ranges  0x000006b0       0xe8 C:\Users\Vitor\Documents\Atmel Studio\7.0\ArduinoSketch4\ArduinoSketch4\ArduinoCore\Debug\libArduinoCore.a(Wire.o)
 .debug_ranges  0x00000798       0x10 C:\Users\Vitor\Documents\Atmel Studio\7.0\ArduinoSketch4\ArduinoSketch4\ArduinoCore\Debug\libArduinoCore.a(abi.o)
 .debug_ranges  0x000007a8       0x38 C:\Users\Vitor\Documents\Atmel Studio\7.0\ArduinoSketch4\ArduinoSketch4\ArduinoCore\Debug\libArduinoCore.a(HardwareSerial1.o)
 .debug_ranges  0x000007e0       0x10 C:\Users\Vitor\Documents\Atmel Studio\7.0\ArduinoSketch4\ArduinoSketch4\ArduinoCore\Debug\libArduinoCore.a(hooks.o)
 .debug_ranges  0x000007f0       0x20 C:\Users\Vitor\Documents\Atmel Studio\7.0\ArduinoSketch4\ArduinoSketch4\ArduinoCore\Debug\libArduinoCore.a(wiring_analog.o)
 .debug_ranges  0x00000810       0x28 C:\Users\Vitor\Documents\Atmel Studio\7.0\ArduinoSketch4\ArduinoSketch4\ArduinoCore\Debug\libArduinoCore.a(wiring_digital.o)
 .debug_ranges  0x00000838       0x38 C:\Users\Vitor\Documents\Atmel Studio\7.0\ArduinoSketch4\ArduinoSketch4\ArduinoCore\Debug\libArduinoCore.a(WMath.o)
 .debug_ranges  0x00000870      0x458 C:\Users\Vitor\Documents\Atmel Studio\7.0\ArduinoSketch4\ArduinoSketch4\ArduinoCore\Debug\libArduinoCore.a(Adafruit_GFX.o)
 .debug_ranges  0x00000cc8       0xc8 C:\Users\Vitor\Documents\Atmel Studio\7.0\ArduinoSketch4\ArduinoSketch4\ArduinoCore\Debug\libArduinoCore.a(AD5933.o)
 .debug_ranges  0x00000d90      0x130 C:\Users\Vitor\Documents\Atmel Studio\7.0\ArduinoSketch4\ArduinoSketch4\ArduinoCore\Debug\libArduinoCore.a(DS3231.o)
 .debug_ranges  0x00000ec0       0x70 C:\Users\Vitor\Documents\Atmel Studio\7.0\ArduinoSketch4\ArduinoSketch4\ArduinoCore\Debug\libArduinoCore.a(twi.o)

.debug_macro
 *(.debug_macro)
OUTPUT(testLIB.elf elf32-avr)
LOAD linker stubs
